c__builtin__
set
p1
((lp2
S'http://www.dianping.com/quanzhou/ch10/g34278r27800'
p3
aS'http://www.dianping.com/quanzhou/ch10/g25151r25348'
p4
aS'http://www.dianping.com/quanzhou/ch10/g1338r30376'
p5
aS'http://www.dianping.com/quanzhou/ch10/g34062r4141'
p6
aS'http://www.dianping.com/quanzhou/ch10/g27823r65745'
p7
aS'http://www.dianping.com/quanzhou/ch10/g3023r24523'
p8
aS'http://www.dianping.com/quanzhou/ch10/g1797r27220'
p9
aS'http://www.dianping.com/quanzhou/ch10/g33924r36375'
p10
aS'http://www.dianping.com/quanzhou/ch10/g4447r27803'
p11
aS'http://www.dianping.com/quanzhou/ch10/g4447r27800'
p12
aS'http://www.dianping.com/quanzhou/ch10/g4447r27801'
p13
aS'http://www.dianping.com/quanzhou/ch10/g4473r88402'
p14
aS'http://www.dianping.com/quanzhou/ch10/g1805r30376'
p15
aS'http://www.dianping.com/quanzhou/ch10/g27823r30376'
p16
aS'http://www.dianping.com/quanzhou/ch10/g4473r4143'
p17
aS'http://www.dianping.com/quanzhou/ch10/g225r13311'
p18
aS'http://www.dianping.com/quanzhou/ch10/g250r13311'
p19
aS'http://www.dianping.com/quanzhou/ch10/g250r13312'
p20
aS'http://www.dianping.com/quanzhou/ch10/g225r13312'
p21
aS'http://www.dianping.com/quanzhou/ch10/g34224r13326'
p22
aS'http://www.dianping.com/quanzhou/ch10/g4601r25347'
p23
aS'http://www.dianping.com/quanzhou/ch10/g250r13319'
p24
aS'http://www.dianping.com/quanzhou/ch10/g1785r88408'
p25
aS'http://www.dianping.com/quanzhou/ch10/g4469r27220'
p26
aS'http://www.dianping.com/quanzhou/ch10/g34277r4146'
p27
aS'http://www.dianping.com/quanzhou/ch10/g34277r4144'
p28
aS'http://www.dianping.com/quanzhou/ch10/g34277r4145'
p29
aS'http://www.dianping.com/quanzhou/ch10/g34277r4142'
p30
aS'http://www.dianping.com/quanzhou/ch10/g105r30453'
p31
aS'http://www.dianping.com/quanzhou/ch10/g34277r4141'
p32
aS'http://www.dianping.com/quanzhou/ch10/g248r4145'
p33
aS'http://www.dianping.com/quanzhou/ch10/g248r4144'
p34
aS'http://www.dianping.com/quanzhou/ch10/g248r4143'
p35
aS'http://www.dianping.com/quanzhou/ch10/g248r4142'
p36
aS'http://www.dianping.com/quanzhou/ch10/g248r4141'
p37
aS'http://www.dianping.com/quanzhou/ch10/g34240r46383'
p38
aS'http://www.dianping.com/quanzhou/ch10/g26482r46360'
p39
aS'http://www.dianping.com/quanzhou/ch10/g2951r30376'
p40
aS'http://www.dianping.com/quanzhou/ch10/g34280r4145'
p41
aS'http://www.dianping.com/quanzhou/ch10/g34280r4141'
p42
aS'http://www.dianping.com/quanzhou/ch10/g4597r25356'
p43
aS'http://www.dianping.com/quanzhou/ch10/g4351r13316'
p44
aS'http://www.dianping.com/quanzhou/ch10/g2823r13322'
p45
aS'http://www.dianping.com/quanzhou/ch10/g4447r13309'
p46
aS'http://www.dianping.com/quanzhou/ch10/g32731r30366'
p47
aS'http://www.dianping.com/quanzhou/ch10/g4467r88408'
p48
aS'http://www.dianping.com/quanzhou/ch10/g4467r88402'
p49
aS'http://www.dianping.com/quanzhou/ch10/g4351r13319'
p50
aS'http://www.dianping.com/quanzhou/ch10/g34041r36375'
p51
aS'http://www.dianping.com/quanzhou/ch10/g34277r30376'
p52
aS'http://www.dianping.com/quanzhou/ch10/g34225r13319'
p53
aS'http://www.dianping.com/quanzhou/ch10/g1338r24523'
p54
aS'http://www.dianping.com/quanzhou/ch10/g4467r27220'
p55
aS'http://www.dianping.com/quanzhou/ch10/g34243r46382'
p56
aS'http://www.dianping.com/quanzhou/ch10/g1338r89506'
p57
aS'http://www.dianping.com/quanzhou/ch10/g34246r36353'
p58
aS'http://www.dianping.com/quanzhou/ch10/g34245r46364'
p59
aS'http://www.dianping.com/quanzhou/ch10/g4449r88402'
p60
aS'http://www.dianping.com/quanzhou/ch10/g26483r4144'
p61
aS'http://www.dianping.com/quanzhou/ch10/g224r27802'
p62
aS'http://www.dianping.com/quanzhou/ch10/g224r27800'
p63
aS'http://www.dianping.com/quanzhou/ch10/g224r27801'
p64
aS'http://www.dianping.com/quanzhou/ch10/g27823r30453'
p65
aS'http://www.dianping.com/quanzhou/ch10/g27823r25348'
p66
aS'http://www.dianping.com/quanzhou/ch10/g4467r88392'
p67
aS'http://www.dianping.com/quanzhou/ch10/g4467r88391'
p68
aS'http://www.dianping.com/quanzhou/ch10/g34241r13305'
p69
aS'http://www.dianping.com/quanzhou/ch10/g247r28423'
p70
aS'http://www.dianping.com/quanzhou/ch10/g27823r25347'
p71
aS'http://www.dianping.com/quanzhou/ch10/g247r28425'
p72
aS'http://www.dianping.com/quanzhou/ch10/g34041r30366'
p73
aS'http://www.dianping.com/quanzhou/ch10/g4447r25347'
p74
aS'http://www.dianping.com/quanzhou/ch10/g34245r46382'
p75
aS'http://www.dianping.com/quanzhou/ch10/g253r4141'
p76
aS'http://www.dianping.com/quanzhou/ch10/g32731r13324'
p77
aS'http://www.dianping.com/quanzhou/ch10/g32731r13326'
p78
aS'http://www.dianping.com/quanzhou/ch10/g32731r13320'
p79
aS'http://www.dianping.com/quanzhou/ch10/g32731r13322'
p80
aS'http://www.dianping.com/quanzhou/ch10/g32731r13323'
p81
aS'http://www.dianping.com/quanzhou/ch10/g4593r24520'
p82
aS'http://www.dianping.com/quanzhou/ch10/g3027r28423'
p83
aS'http://www.dianping.com/quanzhou/ch10/g3027r28426'
p84
aS'http://www.dianping.com/quanzhou/ch10/g3027r86538'
p85
aS'http://www.dianping.com/quanzhou/ch10/g252r13305'
p86
aS'http://www.dianping.com/quanzhou/ch10/g252r13304'
p87
aS'http://www.dianping.com/quanzhou/ch10/g241r30366'
p88
aS'http://www.dianping.com/quanzhou/ch10/g252r13306'
p89
aS'http://www.dianping.com/quanzhou/ch10/g33759'
p90
aS'http://www.dianping.com/quanzhou/ch10/g252r13309'
p91
aS'http://www.dianping.com/quanzhou/ch10/g252r13308'
p92
aS'http://www.dianping.com/quanzhou/ch10/g4447r28023'
p93
aS'http://www.dianping.com/quanzhou/ch10/g1797r13326'
p94
aS'http://www.dianping.com/quanzhou/ch10/g1797r13321'
p95
aS'http://www.dianping.com/quanzhou/ch10/g34041r86538'
p96
aS'http://www.dianping.com/quanzhou/ch10/g247r27802'
p97
aS'http://www.dianping.com/quanzhou/ch10/g247r27800'
p98
aS'http://www.dianping.com/quanzhou/ch10/g3023r4141'
p99
aS'http://www.dianping.com/quanzhou/ch10/g3023r4142'
p100
aS'http://www.dianping.com/quanzhou/ch10/g3023r4143'
p101
aS'http://www.dianping.com/quanzhou/ch10/g3023r4144'
p102
aS'http://www.dianping.com/quanzhou/ch10/g3023r4145'
p103
aS'http://www.dianping.com/quanzhou/ch10/g3023r4146'
p104
aS'http://www.dianping.com/quanzhou/ch10/g224r13308'
p105
aS'http://www.dianping.com/quanzhou/ch10/g34065r25355'
p106
aS'http://www.dianping.com/quanzhou/ch10/g224r13306'
p107
aS'http://www.dianping.com/quanzhou/ch10/g34061r86528'
p108
aS'http://www.dianping.com/quanzhou/ch10/g224r13305'
p109
aS'http://www.dianping.com/quanzhou/ch10/g208r88402'
p110
aS'http://www.dianping.com/quanzhou/ch10/g226r13305'
p111
aS'http://www.dianping.com/quanzhou/ch10/g34240r89506'
p112
aS'http://www.dianping.com/quanzhou/ch10/g226r13307'
p113
aS'http://www.dianping.com/quanzhou/ch10/g34060r88402'
p114
aS'http://www.dianping.com/quanzhou/ch10/g3017r28424'
p115
aS'http://www.dianping.com/quanzhou/ch10/g3017r28423'
p116
aS'http://www.dianping.com/quanzhou/ch10/g34061r24520'
p117
aS'http://www.dianping.com/quanzhou/ch10/g34246r28023'
p118
aS'http://www.dianping.com/quanzhou/ch10/g4583r4146'
p119
aS'http://www.dianping.com/quanzhou/ch10/g4583r4144'
p120
aS'http://www.dianping.com/quanzhou/ch10/g4583r4142'
p121
aS'http://www.dianping.com/quanzhou/ch10/g34243r25359'
p122
aS'http://www.dianping.com/quanzhou/ch10/g4583r4141'
p123
aS'http://www.dianping.com/quanzhou/ch10/g34243r25354'
p124
aS'http://www.dianping.com/quanzhou/ch10/g34243r25355'
p125
aS'http://www.dianping.com/quanzhou/ch10/g34243r25356'
p126
aS'http://www.dianping.com/quanzhou/ch10/g34243r25357'
p127
aS'http://www.dianping.com/quanzhou/ch10/g34243r25350'
p128
aS'http://www.dianping.com/quanzhou/ch10/g34243r25351'
p129
aS'http://www.dianping.com/quanzhou/ch10/g34243r25352'
p130
aS'http://www.dianping.com/quanzhou/ch10/g34243r25353'
p131
aS'http://www.dianping.com/quanzhou/ch10/g34065r30376'
p132
aS'http://www.dianping.com/quanzhou/ch10/g3017r27801'
p133
aS'http://www.dianping.com/quanzhou/ch10/g3017r27802'
p134
aS'http://www.dianping.com/quanzhou/ch10/g34237r13321'
p135
aS'http://www.dianping.com/quanzhou/ch10/g225r4143'
p136
aS'http://www.dianping.com/quanzhou/ch10/g34237r13323'
p137
aS'http://www.dianping.com/quanzhou/ch10/g225r4141'
p138
aS'http://www.dianping.com/quanzhou/ch10/g34237r13324'
p139
aS'http://www.dianping.com/quanzhou/ch10/g225r4144'
p140
aS'http://www.dianping.com/quanzhou/ch10/g225r4145'
p141
aS'http://www.dianping.com/quanzhou/ch10/g4467r30357'
p142
aS'http://www.dianping.com/quanzhou/ch10/g1785r30376'
p143
aS'http://www.dianping.com/quanzhou/ch10/g33924r13305'
p144
aS'http://www.dianping.com/quanzhou/ch10/g25151r88408'
p145
aS'http://www.dianping.com/quanzhou/ch10/g33924r13307'
p146
aS'http://www.dianping.com/quanzhou/ch10/g33924r13309'
p147
aS'http://www.dianping.com/quanzhou/ch10/g33924r13308'
p148
aS'http://www.dianping.com/quanzhou/ch10/g241r36353'
p149
aS'http://www.dianping.com/quanzhou/ch10/g1805r25347'
p150
aS'http://www.dianping.com/quanzhou/ch10/g4583r13317'
p151
aS'http://www.dianping.com/quanzhou/ch10/g252r36375'
p152
aS'http://www.dianping.com/quanzhou/ch10/g34245r86528'
p153
aS'http://www.dianping.com/quanzhou/ch10/g34065r28424'
p154
aS'http://www.dianping.com/quanzhou/ch10/g4583r13318'
p155
aS'http://www.dianping.com/quanzhou/ch10/g4583r13319'
p156
aS'http://www.dianping.com/quanzhou/ch10/g26482r27802'
p157
aS'http://www.dianping.com/quanzhou/ch10/g27823r28023'
p158
aS'http://www.dianping.com/quanzhou/ch10/g250r13315'
p159
aS'http://www.dianping.com/quanzhou/ch10/g32733r30453'
p160
aS'http://www.dianping.com/quanzhou/ch10/g210'
p161
aS'http://www.dianping.com/quanzhou/ch10/g217'
p162
aS'http://www.dianping.com/quanzhou/ch10/g32731r4145'
p163
aS'http://www.dianping.com/quanzhou/ch10/g32731r4144'
p164
aS'http://www.dianping.com/quanzhou/ch10/g32731r4146'
p165
aS'http://www.dianping.com/quanzhou/ch10/g32731r4141'
p166
aS'http://www.dianping.com/quanzhou/ch10/g32731r4143'
p167
aS'http://www.dianping.com/quanzhou/ch10/g32731r4142'
p168
aS'http://www.dianping.com/quanzhou/ch10/g4481r25347'
p169
aS'http://www.dianping.com/quanzhou/ch10/g4481r24523'
p170
aS'http://www.dianping.com/quanzhou/ch10/g26483r25350'
p171
aS'http://www.dianping.com/quanzhou/ch10/g26482r36353'
p172
aS'http://www.dianping.com/quanzhou/ch10/g3023r86538'
p173
aS'http://www.dianping.com/quanzhou/ch10/g34240r28423'
p174
aS'http://www.dianping.com/quanzhou/ch10/g34240r28426'
p175
aS'http://www.dianping.com/quanzhou/ch10/g34240r28427'
p176
aS'http://www.dianping.com/quanzhou/ch10/g34240r28424'
p177
aS'http://www.dianping.com/quanzhou/ch10/g34240r28425'
p178
aS'http://www.dianping.com/quanzhou/ch10/g105r27220'
p179
aS'http://www.dianping.com/quanzhou/ch10/g3027r4144'
p180
aS'http://www.dianping.com/quanzhou/ch10/g3027r4145'
p181
aS'http://www.dianping.com/quanzhou/ch10/g3027r4146'
p182
aS'http://www.dianping.com/quanzhou/ch10/g1453r86528'
p183
aS'http://www.dianping.com/quanzhou/ch10/g3027r4141'
p184
aS'http://www.dianping.com/quanzhou/ch10/g3027r4142'
p185
aS'http://www.dianping.com/quanzhou/ch10/g3027r4143'
p186
aS'http://www.dianping.com/quanzhou/ch10/g33924r86538'
p187
aS'http://www.dianping.com/quanzhou/ch10/g250r13309'
p188
aS'http://www.dianping.com/quanzhou/ch10/g250r13308'
p189
aS'http://www.dianping.com/quanzhou/ch10/g34245r27220'
p190
aS'http://www.dianping.com/quanzhou/ch10/g4467r27800'
p191
aS'http://www.dianping.com/quanzhou/ch10/g34237r36375'
p192
aS'http://www.dianping.com/quanzhou/ch10/g226r25350'
p193
aS'http://www.dianping.com/quanzhou/ch10/g4477r88389'
p194
aS'http://www.dianping.com/quanzhou/ch10/g247r13319'
p195
aS'http://www.dianping.com/quanzhou/ch10/g247r13310'
p196
aS'http://www.dianping.com/quanzhou/ch10/g247r13311'
p197
aS'http://www.dianping.com/quanzhou/ch10/g247r13314'
p198
aS'http://www.dianping.com/quanzhou/ch10/g247r13315'
p199
aS'http://www.dianping.com/quanzhou/ch10/g247r13317'
p200
aS'http://www.dianping.com/quanzhou/ch10/g4449r30376'
p201
aS'http://www.dianping.com/quanzhou/ch10/g4473r27801'
p202
aS'http://www.dianping.com/quanzhou/ch10/g247r86528'
p203
aS'http://www.dianping.com/quanzhou/ch10/g4273r27800'
p204
aS'http://www.dianping.com/quanzhou/ch10/g34244r27802'
p205
aS'http://www.dianping.com/quanzhou/ch10/g34257r88392'
p206
aS'http://www.dianping.com/quanzhou/ch10/g105r28424'
p207
aS'http://www.dianping.com/quanzhou/ch10/g34233r25355'
p208
aS'http://www.dianping.com/quanzhou/ch10/g4467r86538'
p209
aS'http://www.dianping.com/quanzhou/ch10/g34225r13320'
p210
aS'http://www.dianping.com/quanzhou/ch10/g1785r13320'
p211
aS'http://www.dianping.com/quanzhou/ch10/g34225r13323'
p212
aS'http://www.dianping.com/quanzhou/ch10/g34225r13324'
p213
aS'http://www.dianping.com/quanzhou/ch10/g34225r13326'
p214
aS'http://www.dianping.com/quanzhou/ch10/g4583r88389'
p215
aS'http://www.dianping.com/quanzhou/ch10/g34246r36362'
p216
aS'http://www.dianping.com/quanzhou/ch10/g33924r30376'
p217
aS'http://www.dianping.com/quanzhou/ch10/g4583r13309'
p218
aS'http://www.dianping.com/quanzhou/ch10/g34065r24523'
p219
aS'http://www.dianping.com/quanzhou/ch10/g34065r24520'
p220
aS'http://www.dianping.com/quanzhou/ch10/g4447r25350'
p221
aS'http://www.dianping.com/quanzhou/ch10/g4447r25353'
p222
aS'http://www.dianping.com/quanzhou/ch10/g4447r25354'
p223
aS'http://www.dianping.com/quanzhou/ch10/g4447r25355'
p224
aS'http://www.dianping.com/quanzhou/ch10/g4447r25356'
p225
aS'http://www.dianping.com/quanzhou/ch10/g4467r88389'
p226
aS'http://www.dianping.com/quanzhou/ch10/g34237r4142'
p227
aS'http://www.dianping.com/quanzhou/ch10/g34237r4143'
p228
aS'http://www.dianping.com/quanzhou/ch10/g1805r36353'
p229
aS'http://www.dianping.com/quanzhou/ch10/g34237r4141'
p230
aS'http://www.dianping.com/quanzhou/ch10/g34237r4146'
p231
aS'http://www.dianping.com/quanzhou/ch10/g34237r4144'
p232
aS'http://www.dianping.com/quanzhou/ch10/g34237r4145'
p233
aS'http://www.dianping.com/quanzhou/ch10/g34240r64615'
p234
aS'http://www.dianping.com/quanzhou/ch10/g224r36375'
p235
aS'http://www.dianping.com/quanzhou/ch10/g4467r86542'
p236
aS'http://www.dianping.com/quanzhou/ch10/g3027r89506'
p237
aS'http://www.dianping.com/quanzhou/ch10/g1785r25356'
p238
aS'http://www.dianping.com/quanzhou/ch10/g241r30376'
p239
aS'http://www.dianping.com/quanzhou/ch10/g1338r46360'
p240
aS'http://www.dianping.com/quanzhou/ch10/g25474'
p241
aS'http://www.dianping.com/quanzhou/ch10/g250r4146'
p242
aS'http://www.dianping.com/quanzhou/ch10/g250r4144'
p243
aS'http://www.dianping.com/quanzhou/ch10/g250r4145'
p244
aS'http://www.dianping.com/quanzhou/ch10/g250r4142'
p245
aS'http://www.dianping.com/quanzhou/ch10/g250r4143'
p246
aS'http://www.dianping.com/quanzhou/ch10/g3031r13314'
p247
aS'http://www.dianping.com/quanzhou/ch10/g33950r88389'
p248
aS'http://www.dianping.com/quanzhou/ch10/g4477r64615'
p249
aS'http://www.dianping.com/quanzhou/ch10/g33950r13304'
p250
aS'http://www.dianping.com/quanzhou/ch10/g33950r13305'
p251
aS'http://www.dianping.com/quanzhou/ch10/g34246r24523'
p252
aS'http://www.dianping.com/quanzhou/ch10/g33950r13308'
p253
aS'http://www.dianping.com/quanzhou/ch10/g33950r13309'
p254
aS'http://www.dianping.com/quanzhou/ch10/g32731r25362'
p255
aS'http://www.dianping.com/quanzhou/ch10/g34246r30357'
p256
aS'http://www.dianping.com/quanzhou/ch10/g208r27220'
p257
aS'http://www.dianping.com/quanzhou/ch10/g226r27802'
p258
aS'http://www.dianping.com/quanzhou/ch10/g4449r13322'
p259
aS'http://www.dianping.com/quanzhou/ch10/g3027r30376'
p260
aS'http://www.dianping.com/quanzhou/ch10/g4449r13320'
p261
aS'http://www.dianping.com/quanzhou/ch10/g4449r13326'
p262
aS'http://www.dianping.com/quanzhou/ch10/g4449r13324'
p263
aS'http://www.dianping.com/quanzhou/ch10/g1785r25355'
p264
aS'http://www.dianping.com/quanzhou/ch10/g4273r13321'
p265
aS'http://www.dianping.com/quanzhou/ch10/g4273r13326'
p266
aS'http://www.dianping.com/quanzhou/ch10/g250r25350'
p267
aS'http://www.dianping.com/quanzhou/ch10/g3023r27801'
p268
aS'http://www.dianping.com/quanzhou/ch10/g224r13317'
p269
aS'http://www.dianping.com/quanzhou/ch10/g224r13316'
p270
aS'http://www.dianping.com/quanzhou/ch10/g224r13311'
p271
aS'http://www.dianping.com/quanzhou/ch10/g250r25353'
p272
aS'http://www.dianping.com/quanzhou/ch10/g224r13313'
p273
aS'http://www.dianping.com/quanzhou/ch10/g224r13312'
p274
aS'http://www.dianping.com/quanzhou/ch10/g103'
p275
aS'http://www.dianping.com/quanzhou/ch10/g34237r30357'
p276
aS'http://www.dianping.com/quanzhou/ch10/g250r25355'
p277
aS'http://www.dianping.com/quanzhou/ch10/g4469r25353'
p278
aS'http://www.dianping.com/quanzhou/ch10/g226r13313'
p279
aS'http://www.dianping.com/quanzhou/ch10/g226r13312'
p280
aS'http://www.dianping.com/quanzhou/ch10/g226r13311'
p281
aS'http://www.dianping.com/quanzhou/ch10/g33950r30376'
p282
aS'http://www.dianping.com/quanzhou/ch10/g224r64615'
p283
aS'http://www.dianping.com/quanzhou/ch10/g4477r27802'
p284
aS'http://www.dianping.com/quanzhou/ch10/g1797r27800'
p285
aS'http://www.dianping.com/quanzhou/ch10/g32731r28424'
p286
aS'http://www.dianping.com/quanzhou/ch10/g208r28023'
p287
aS'http://www.dianping.com/quanzhou/ch10/g34243r25348'
p288
aS'http://www.dianping.com/quanzhou/ch10/g34237r13314'
p289
aS'http://www.dianping.com/quanzhou/ch10/g34237r13315'
p290
aS'http://www.dianping.com/quanzhou/ch10/g34237r13316'
p291
aS'http://www.dianping.com/quanzhou/ch10/g34237r13317'
p292
aS'http://www.dianping.com/quanzhou/ch10/g34237r13310'
p293
aS'http://www.dianping.com/quanzhou/ch10/g34237r13311'
p294
aS'http://www.dianping.com/quanzhou/ch10/g34237r13312'
p295
aS'http://www.dianping.com/quanzhou/ch10/g34237r13313'
p296
aS'http://www.dianping.com/quanzhou/ch10/g241r88389'
p297
aS'http://www.dianping.com/quanzhou/ch10/g34237r13318'
p298
aS'http://www.dianping.com/quanzhou/ch10/g34237r13319'
p299
aS'http://www.dianping.com/quanzhou/ch10/g247r4146'
p300
aS'http://www.dianping.com/quanzhou/ch10/g247r4144'
p301
aS'http://www.dianping.com/quanzhou/ch10/g247r4145'
p302
aS'http://www.dianping.com/quanzhou/ch10/g247r4142'
p303
aS'http://www.dianping.com/quanzhou/ch10/g247r4143'
p304
aS'http://www.dianping.com/quanzhou/ch10/g247r4141'
p305
aS'http://www.dianping.com/quanzhou/ch10/g208r36375'
p306
aS'http://www.dianping.com/quanzhou/ch10/g4469r86546'
p307
aS'http://www.dianping.com/quanzhou/ch10/g34245r86537'
p308
aS'http://www.dianping.com/quanzhou/ch10/g4469r86542'
p309
aS'http://www.dianping.com/quanzhou/ch10/g4593r4146'
p310
aS'http://www.dianping.com/quanzhou/ch10/g4447r27220'
p311
aS'http://www.dianping.com/quanzhou/ch10/g4593r4144'
p312
aS'http://www.dianping.com/quanzhou/ch10/g4593r4143'
p313
aS'http://www.dianping.com/quanzhou/ch10/g4593r4142'
p314
aS'http://www.dianping.com/quanzhou/ch10/g4593r4141'
p315
aS'http://www.dianping.com/quanzhou/ch10/g252r4143'
p316
aS'http://www.dianping.com/quanzhou/ch10/g4449r36353'
p317
aS'http://www.dianping.com/quanzhou/ch10/g208r4143'
p318
aS'http://www.dianping.com/quanzhou/ch10/g208r4142'
p319
aS'http://www.dianping.com/quanzhou/ch10/g208r4141'
p320
aS'http://www.dianping.com/quanzhou/ch10/g208r4146'
p321
aS'http://www.dianping.com/quanzhou/ch10/g208r4144'
p322
aS'http://www.dianping.com/quanzhou/ch10/g34243r30453'
p323
aS'http://www.dianping.com/quanzhou/ch10/g32731r25351'
p324
aS'http://www.dianping.com/quanzhou/ch10/g4469r13319'
p325
aS'http://www.dianping.com/quanzhou/ch10/g33950r13319'
p326
aS'http://www.dianping.com/quanzhou/ch10/g4351r30453'
p327
aS'http://www.dianping.com/quanzhou/ch10/g4469r13317'
p328
aS'http://www.dianping.com/quanzhou/ch10/g32731r25353'
p329
aS'http://www.dianping.com/quanzhou/ch10/g4469r13311'
p330
aS'http://www.dianping.com/quanzhou/ch10/g4469r13310'
p331
aS'http://www.dianping.com/quanzhou/ch10/g4469r13313'
p332
aS'http://www.dianping.com/quanzhou/ch10/g4469r13312'
p333
aS'http://www.dianping.com/quanzhou/ch10/g3023r28023'
p334
aS'http://www.dianping.com/quanzhou/ch10/g4481r25350'
p335
aS'http://www.dianping.com/quanzhou/ch10/g33924r36353'
p336
aS'http://www.dianping.com/quanzhou/ch10/g34245r89506'
p337
aS'http://www.dianping.com/quanzhou/ch10/g34060r30366'
p338
aS'http://www.dianping.com/quanzhou/ch10/g34257r88408'
p339
aS'http://www.dianping.com/quanzhou/ch10/g248r25355'
p340
aS'http://www.dianping.com/quanzhou/ch10/g4351r25353'
p341
aS'http://www.dianping.com/quanzhou/ch10/g34240r88391'
p342
aS'http://www.dianping.com/quanzhou/ch10/g3023r88389'
p343
aS'http://www.dianping.com/quanzhou/ch10/g34225r28424'
p344
aS'http://www.dianping.com/quanzhou/ch10/g34238r28424'
p345
aS'http://www.dianping.com/quanzhou/ch10/g34237r27220'
p346
aS'http://www.dianping.com/quanzhou/ch10/g1338r4143'
p347
aS'http://www.dianping.com/quanzhou/ch10/g1338r4142'
p348
aS'http://www.dianping.com/quanzhou/ch10/g3017r25347'
p349
aS'http://www.dianping.com/quanzhou/ch10/g1338r4146'
p350
aS'http://www.dianping.com/quanzhou/ch10/g1338r4145'
p351
aS'http://www.dianping.com/quanzhou/ch10/g4469r13321'
p352
aS'http://www.dianping.com/quanzhou/ch10/g247r13308'
p353
aS'http://www.dianping.com/quanzhou/ch10/g247r13307'
p354
aS'http://www.dianping.com/quanzhou/ch10/g4449r13315'
p355
aS'http://www.dianping.com/quanzhou/ch10/g34277r24523'
p356
aS'http://www.dianping.com/quanzhou/ch10/g34065r36353'
p357
aS'http://www.dianping.com/quanzhou/ch10/g4473r24520'
p358
aS'http://www.dianping.com/quanzhou/ch10/g4473r24523'
p359
aS'http://www.dianping.com/quanzhou/ch10/g34245r24523'
p360
aS'http://www.dianping.com/quanzhou/ch10/g34245r24520'
p361
aS'http://www.dianping.com/quanzhou/ch10/g34223r36375'
p362
aS'http://www.dianping.com/quanzhou/ch10/g1785r13317'
p363
aS'http://www.dianping.com/quanzhou/ch10/g1785r13316'
p364
aS'http://www.dianping.com/quanzhou/ch10/g1785r13315'
p365
aS'http://www.dianping.com/quanzhou/ch10/g1785r13314'
p366
aS'http://www.dianping.com/quanzhou/ch10/g252r64615'
p367
aS'http://www.dianping.com/quanzhou/ch10/g1785r13312'
p368
aS'http://www.dianping.com/quanzhou/ch10/g1785r13311'
p369
aS'http://www.dianping.com/quanzhou/ch10/g1785r13319'
p370
aS'http://www.dianping.com/quanzhou/ch10/g4469r88389'
p371
aS'http://www.dianping.com/quanzhou/ch10/g26483r4146'
p372
aS'http://www.dianping.com/quanzhou/ch10/g34246r36375'
p373
aS'http://www.dianping.com/quanzhou/ch10/g26483r4145'
p374
aS'http://www.dianping.com/quanzhou/ch10/g26483r4142'
p375
aS'http://www.dianping.com/quanzhou/ch10/g26483r4143'
p376
aS'http://www.dianping.com/quanzhou/ch10/g34062r13321'
p377
aS'http://www.dianping.com/quanzhou/ch10/g34245r46383'
p378
aS'http://www.dianping.com/quanzhou/ch10/g34234r25355'
p379
aS'http://www.dianping.com/quanzhou/ch10/g34243r24520'
p380
aS'http://www.dianping.com/quanzhou/ch10/g34243r24523'
p381
aS'http://www.dianping.com/quanzhou/ch10/g4583r13311'
p382
aS'http://www.dianping.com/quanzhou/ch10/g4583r13312'
p383
aS'http://www.dianping.com/quanzhou/ch10/g4583r13313'
p384
aS'http://www.dianping.com/quanzhou/ch10/g4583r13315'
p385
aS'http://www.dianping.com/quanzhou/ch10/g34060r25347'
p386
aS'http://www.dianping.com/quanzhou/ch10/g34060r25348'
p387
aS'http://www.dianping.com/quanzhou/ch10/g4467r36353'
p388
aS'http://www.dianping.com/quanzhou/ch10/g4583r25355'
p389
aS'http://www.dianping.com/quanzhou/ch10/g4583r25350'
p390
aS'http://www.dianping.com/quanzhou/ch10/g4583r25353'
p391
aS'http://www.dianping.com/quanzhou/ch10/g34245r30453'
p392
aS'http://www.dianping.com/quanzhou/ch10/g4467r27801'
p393
aS'http://www.dianping.com/quanzhou/ch10/g4467r27802'
p394
aS'http://www.dianping.com/quanzhou/ch10/g4467r27803'
p395
aS'http://www.dianping.com/quanzhou/ch10/g4467r86537'
p396
aS'http://www.dianping.com/quanzhou/ch10/g34244r30453'
p397
aS'http://www.dianping.com/quanzhou/ch10/g26482r13305'
p398
aS'http://www.dianping.com/quanzhou/ch10/g34279r36375'
p399
aS'http://www.dianping.com/quanzhou/ch10/g4583r30376'
p400
aS'http://www.dianping.com/quanzhou/ch10/g27823r27802'
p401
aS'http://www.dianping.com/quanzhou/ch10/g27823r27803'
p402
aS'http://www.dianping.com/quanzhou/ch10/g4477r13321'
p403
aS'http://www.dianping.com/quanzhou/ch10/g4477r13320'
p404
aS'http://www.dianping.com/quanzhou/ch10/g4477r13323'
p405
aS'http://www.dianping.com/quanzhou/ch10/g4477r13322'
p406
aS'http://www.dianping.com/quanzhou/ch10/g32731r28425'
p407
aS'http://www.dianping.com/quanzhou/ch10/g3023r30376'
p408
aS'http://www.dianping.com/quanzhou/ch10/g32731r28427'
p409
aS'http://www.dianping.com/quanzhou/ch10/g4477r13326'
p410
aS'http://www.dianping.com/quanzhou/ch10/g33950r13317'
p411
aS'http://www.dianping.com/quanzhou/ch10/g33950r13316'
p412
aS'http://www.dianping.com/quanzhou/ch10/g33950r13315'
p413
aS'http://www.dianping.com/quanzhou/ch10/g33950r13313'
p414
aS'http://www.dianping.com/quanzhou/ch10/g33950r13312'
p415
aS'http://www.dianping.com/quanzhou/ch10/g33950r13311'
p416
aS'http://www.dianping.com/quanzhou/ch10/g32731r25354'
p417
aS'http://www.dianping.com/quanzhou/ch10/g32731r25355'
p418
aS'http://www.dianping.com/quanzhou/ch10/g32731r25356'
p419
aS'http://www.dianping.com/quanzhou/ch10/g32731r25350'
p420
aS'http://www.dianping.com/quanzhou/ch10/g33950r88392'
p421
aS'http://www.dianping.com/quanzhou/ch10/g33950r88391'
p422
aS'http://www.dianping.com/quanzhou/ch10/g33950r13318'
p423
aS'http://www.dianping.com/quanzhou/ch10/g241r13323'
p424
aS'http://www.dianping.com/quanzhou/ch10/g241r13322'
p425
aS'http://www.dianping.com/quanzhou/ch10/g241r13321'
p426
aS'http://www.dianping.com/quanzhou/ch10/g241r13320'
p427
aS'http://www.dianping.com/quanzhou/ch10/g241r13326'
p428
aS'http://www.dianping.com/quanzhou/ch10/g241r13324'
p429
aS'http://www.dianping.com/quanzhou/ch10/g4305r25355'
p430
aS'http://www.dianping.com/quanzhou/ch10/g4449r13317'
p431
aS'http://www.dianping.com/quanzhou/ch10/g4449r13316'
p432
aS'http://www.dianping.com/quanzhou/ch10/g34237r88402'
p433
aS'http://www.dianping.com/quanzhou/ch10/g4449r13314'
p434
aS'http://www.dianping.com/quanzhou/ch10/g4449r13313'
p435
aS'http://www.dianping.com/quanzhou/ch10/g4449r13311'
p436
aS'http://www.dianping.com/quanzhou/ch10/g34237r88408'
p437
aS'http://www.dianping.com/quanzhou/ch10/g4449r13319'
p438
aS'http://www.dianping.com/quanzhou/ch10/g3243'
p439
aS'http://www.dianping.com/quanzhou/ch10/g3023r89427'
p440
aS'http://www.dianping.com/quanzhou/ch10/g32723r89506'
p441
aS'http://www.dianping.com/quanzhou/ch10/g4601r28023'
p442
aS'http://www.dianping.com/quanzhou/ch10/g34061r28424'
p443
aS'http://www.dianping.com/quanzhou/ch10/g2951r88389'
p444
aS'http://www.dianping.com/quanzhou/ch10/g34237r28424'
p445
aS'http://www.dianping.com/quanzhou/ch10/g34237r28425'
p446
aS'http://www.dianping.com/quanzhou/ch10/g34237r28426'
p447
aS'http://www.dianping.com/quanzhou/ch10/g34237r28427'
p448
aS'http://www.dianping.com/quanzhou/ch10/g34237r28423'
p449
aS'http://www.dianping.com/quanzhou/ch10/g25151r13314'
p450
aS'http://www.dianping.com/quanzhou/ch10/g226r13321'
p451
aS'http://www.dianping.com/quanzhou/ch10/g226r13326'
p452
aS'http://www.dianping.com/quanzhou/ch10/g34225r86542'
p453
aS'http://www.dianping.com/quanzhou/ch10/g1785r13306'
p454
aS'http://www.dianping.com/quanzhou/ch10/g247r27220'
p455
aS'http://www.dianping.com/quanzhou/ch10/g250r27802'
p456
aS'http://www.dianping.com/quanzhou/ch10/g250r27801'
p457
aS'http://www.dianping.com/quanzhou/ch10/g34225r36375'
p458
aS'http://www.dianping.com/quanzhou/ch10/g34237r13309'
p459
aS'http://www.dianping.com/quanzhou/ch10/g34237r13308'
p460
aS'http://www.dianping.com/quanzhou/ch10/g34257r46374'
p461
aS'http://www.dianping.com/quanzhou/ch10/g34237r13307'
p462
aS'http://www.dianping.com/quanzhou/ch10/g34237r13306'
p463
aS'http://www.dianping.com/quanzhou/ch10/g34237r13305'
p464
aS'http://www.dianping.com/quanzhou/ch10/g34237r13304'
p465
aS'http://www.dianping.com/quanzhou/ch10/g3027r25360'
p466
aS'http://www.dianping.com/quanzhou/ch10/g33950r30366'
p467
aS'http://www.dianping.com/quanzhou/ch10/g2823r4141'
p468
aS'http://www.dianping.com/quanzhou/ch10/g33924r13322'
p469
aS'http://www.dianping.com/quanzhou/ch10/g33924r13321'
p470
aS'http://www.dianping.com/quanzhou/ch10/g33924r13320'
p471
aS'http://www.dianping.com/quanzhou/ch10/g33924r13326'
p472
aS'http://www.dianping.com/quanzhou/ch10/g33924r13324'
p473
aS'http://www.dianping.com/quanzhou/ch10/g208r86538'
p474
aS'http://www.dianping.com/quanzhou/ch10/g241r36375'
p475
aS'http://www.dianping.com/quanzhou/ch10/g4469r28023'
p476
aS'http://www.dianping.com/quanzhou/ch10/g34062r64615'
p477
aS'http://www.dianping.com/quanzhou/ch10/g34257r13307'
p478
aS'http://www.dianping.com/quanzhou/ch10/g4469r13306'
p479
aS'http://www.dianping.com/quanzhou/ch10/g247r28424'
p480
aS'http://www.dianping.com/quanzhou/ch10/g4449r4143'
p481
aS'http://www.dianping.com/quanzhou/ch10/g4449r4142'
p482
aS'http://www.dianping.com/quanzhou/ch10/g4449r4141'
p483
aS'http://www.dianping.com/quanzhou/ch10/g4473r28427'
p484
aS'http://www.dianping.com/quanzhou/ch10/g4449r4146'
p485
aS'http://www.dianping.com/quanzhou/ch10/g4449r4145'
p486
aS'http://www.dianping.com/quanzhou/ch10/g4449r4144'
p487
aS'http://www.dianping.com/quanzhou/ch10/g250r88402'
p488
aS'http://www.dianping.com/quanzhou/ch10/g34240r88389'
p489
aS'http://www.dianping.com/quanzhou/ch10/g253r4143'
p490
aS'http://www.dianping.com/quanzhou/ch10/g34064r25347'
p491
aS'http://www.dianping.com/quanzhou/ch10/g250r13321'
p492
aS'http://www.dianping.com/quanzhou/ch10/g250r13320'
p493
aS'http://www.dianping.com/quanzhou/ch10/g250r13322'
p494
aS'http://www.dianping.com/quanzhou/ch10/g250r13324'
p495
aS'http://www.dianping.com/quanzhou/ch10/g250r13326'
p496
aS'http://www.dianping.com/quanzhou/ch10/g4447r30453'
p497
aS'http://www.dianping.com/quanzhou/ch10/g34223r13320'
p498
aS'http://www.dianping.com/quanzhou/ch10/g34223r13321'
p499
aS'http://www.dianping.com/quanzhou/ch10/g34278r24523'
p500
aS'http://www.dianping.com/quanzhou/ch10/g34223r13324'
p501
aS'http://www.dianping.com/quanzhou/ch10/g3017r25355'
p502
aS'http://www.dianping.com/quanzhou/ch10/g3017r25353'
p503
aS'http://www.dianping.com/quanzhou/ch10/g247r88391'
p504
aS'http://www.dianping.com/quanzhou/ch10/g34063r30453'
p505
aS'http://www.dianping.com/quanzhou/ch10/g33950r36375'
p506
aS'http://www.dianping.com/quanzhou/ch10/g4473r46353'
p507
aS'http://www.dianping.com/quanzhou/ch10/g4273r36375'
p508
aS'http://www.dianping.com/quanzhou/ch10/g1785r28426'
p509
aS'http://www.dianping.com/quanzhou/ch10/g4449r30357'
p510
aS'http://www.dianping.com/quanzhou/ch10/g1785r28423'
p511
aS'http://www.dianping.com/quanzhou/ch10/g226r86537'
p512
aS'http://www.dianping.com/quanzhou/ch10/g4477r24523'
p513
aS'http://www.dianping.com/quanzhou/ch10/g250r27800'
p514
aS'http://www.dianping.com/quanzhou/ch10/g33950r4145'
p515
aS'http://www.dianping.com/quanzhou/ch10/g33924r27801'
p516
aS'http://www.dianping.com/quanzhou/ch10/g33924r27800'
p517
aS'http://www.dianping.com/quanzhou/ch10/g26482r30376'
p518
aS'http://www.dianping.com/quanzhou/ch10/g33924r27802'
p519
aS'http://www.dianping.com/quanzhou/ch10/g1785r13309'
p520
aS'http://www.dianping.com/quanzhou/ch10/g27823r88402'
p521
aS'http://www.dianping.com/quanzhou/ch10/g3233r4143'
p522
aS'http://www.dianping.com/quanzhou/ch10/g3233r4142'
p523
aS'http://www.dianping.com/quanzhou/ch10/g3233r4141'
p524
aS'http://www.dianping.com/quanzhou/ch10/g3233r4146'
p525
aS'http://www.dianping.com/quanzhou/ch10/g34243r27220'
p526
aS'http://www.dianping.com/quanzhou/ch10/g3233r4144'
p527
aS'http://www.dianping.com/quanzhou/ch10/g34243r88389'
p528
aS'http://www.dianping.com/quanzhou/ch10/g4351r13315'
p529
aS'http://www.dianping.com/quanzhou/ch10/g34245r46390'
p530
aS'http://www.dianping.com/quanzhou/ch10/g34234r25347'
p531
aS'http://www.dianping.com/quanzhou/ch10/g247r25347'
p532
aS'http://www.dianping.com/quanzhou/ch10/g34240r24523'
p533
aS'http://www.dianping.com/quanzhou/ch10/g34060r13319'
p534
aS'http://www.dianping.com/quanzhou/ch10/g1338r86542'
p535
aS'http://www.dianping.com/quanzhou/ch10/g34060r25356'
p536
aS'http://www.dianping.com/quanzhou/ch10/g34060r25355'
p537
aS'http://www.dianping.com/quanzhou/ch10/g34060r25353'
p538
aS'http://www.dianping.com/quanzhou/ch10/g34257r13318'
p539
aS'http://www.dianping.com/quanzhou/ch10/g34060r25350'
p540
aS'http://www.dianping.com/quanzhou/ch10/g4583r25347'
p541
aS'http://www.dianping.com/quanzhou/ch10/g34060r13315'
p542
aS'http://www.dianping.com/quanzhou/ch10/g34257r25355'
p543
aS'http://www.dianping.com/quanzhou/ch10/g4583r25348'
p544
aS'http://www.dianping.com/quanzhou/ch10/g34243r86528'
p545
aS'http://www.dianping.com/quanzhou/ch10/g3023r27220'
p546
aS'http://www.dianping.com/quanzhou/ch10/g1785r36353'
p547
aS'http://www.dianping.com/quanzhou/ch10/g4467r86528'
p548
aS'http://www.dianping.com/quanzhou/ch10/g26482r13319'
p549
aS'http://www.dianping.com/quanzhou/ch10/g34237r46404'
p550
aS'http://www.dianping.com/quanzhou/ch10/g241r30357'
p551
aS'http://www.dianping.com/quanzhou/ch10/g26482r13312'
p552
aS'http://www.dianping.com/quanzhou/ch10/g26482r13316'
p553
aS'http://www.dianping.com/quanzhou/ch10/g1338r27800'
p554
aS'http://www.dianping.com/quanzhou/ch10/g4447r88408'
p555
aS'http://www.dianping.com/quanzhou/ch10/g1338r27801'
p556
aS'http://www.dianping.com/quanzhou/ch10/g4449r28425'
p557
aS'http://www.dianping.com/quanzhou/ch10/g4449r28424'
p558
aS'http://www.dianping.com/quanzhou/ch10/g4447r88402'
p559
aS'http://www.dianping.com/quanzhou/ch10/g34224r4142'
p560
aS'http://www.dianping.com/quanzhou/ch10/g33950r25348'
p561
aS'http://www.dianping.com/quanzhou/ch10/g1797r89506'
p562
aS'http://www.dianping.com/quanzhou/ch10/g3023r30366'
p563
aS'http://www.dianping.com/quanzhou/ch10/g224r24520'
p564
aS'http://www.dianping.com/quanzhou/ch10/g2951r24520'
p565
aS'http://www.dianping.com/quanzhou/ch10/g224r24523'
p566
aS'http://www.dianping.com/quanzhou/ch10/g33924r13323'
p567
aS'http://www.dianping.com/quanzhou/ch10/g1785r36375'
p568
aS'http://www.dianping.com/quanzhou/ch10/g241r13316'
p569
aS'http://www.dianping.com/quanzhou/ch10/g241r13317'
p570
aS'http://www.dianping.com/quanzhou/ch10/g241r13314'
p571
aS'http://www.dianping.com/quanzhou/ch10/g241r13315'
p572
aS'http://www.dianping.com/quanzhou/ch10/g32731r25347'
p573
aS'http://www.dianping.com/quanzhou/ch10/g241r13313'
p574
aS'http://www.dianping.com/quanzhou/ch10/g241r13311'
p575
aS'http://www.dianping.com/quanzhou/ch10/g32731r25348'
p576
aS'http://www.dianping.com/quanzhou/ch10/g34060r30376'
p577
aS'http://www.dianping.com/quanzhou/ch10/g241r13319'
p578
aS'http://www.dianping.com/quanzhou/ch10/g4449r13309'
p579
aS'http://www.dianping.com/quanzhou/ch10/g4449r13304'
p580
aS'http://www.dianping.com/quanzhou/ch10/g4449r13306'
p581
aS'http://www.dianping.com/quanzhou/ch10/g4449r13307'
p582
aS'http://www.dianping.com/quanzhou/ch10/g34041r30376'
p583
aS'http://www.dianping.com/quanzhou/ch10/g26483r13324'
p584
aS'http://www.dianping.com/quanzhou/ch10/g26483r13326'
p585
aS'http://www.dianping.com/quanzhou/ch10/g26483r13323'
p586
aS'http://www.dianping.com/quanzhou/ch10/g1338r27220'
p587
aS'http://www.dianping.com/quanzhou/ch10/g34060r36353'
p588
aS'http://www.dianping.com/quanzhou/ch10/g25151r13321'
p589
aS'http://www.dianping.com/quanzhou/ch10/g250r86546'
p590
aS'http://www.dianping.com/quanzhou/ch10/g34225r30357'
p591
aS'http://www.dianping.com/quanzhou/ch10/g34224r86538'
p592
aS'http://www.dianping.com/quanzhou/ch10/g34234r13323'
p593
aS'http://www.dianping.com/quanzhou/ch10/g3023r30453'
p594
aS'http://www.dianping.com/quanzhou/ch10/g224r88389'
p595
aS'http://www.dianping.com/quanzhou/ch10/g34244r27220'
p596
aS'http://www.dianping.com/quanzhou/ch10/g1785r4143'
p597
aS'http://www.dianping.com/quanzhou/ch10/g4583r28424'
p598
aS'http://www.dianping.com/quanzhou/ch10/g34245r46356'
p599
aS'http://www.dianping.com/quanzhou/ch10/g3027r25356'
p600
aS'http://www.dianping.com/quanzhou/ch10/g3027r25355'
p601
aS'http://www.dianping.com/quanzhou/ch10/g3027r25353'
p602
aS'http://www.dianping.com/quanzhou/ch10/g3027r25351'
p603
aS'http://www.dianping.com/quanzhou/ch10/g3027r25350'
p604
aS'http://www.dianping.com/quanzhou/ch10/g27823r24520'
p605
aS'http://www.dianping.com/quanzhou/ch10/g27823r24523'
p606
aS'http://www.dianping.com/quanzhou/ch10/g250r36375'
p607
aS'http://www.dianping.com/quanzhou/ch10/g4583r13326'
p608
aS'http://www.dianping.com/quanzhou/ch10/g4469r27802'
p609
aS'http://www.dianping.com/quanzhou/ch10/g4467r4142'
p610
aS'http://www.dianping.com/quanzhou/ch10/g250r25347'
p611
aS'http://www.dianping.com/quanzhou/ch10/g4477r89427'
p612
aS'http://www.dianping.com/quanzhou/ch10/g3017r13322'
p613
aS'http://www.dianping.com/quanzhou/ch10/g4449r36375'
p614
aS'http://www.dianping.com/quanzhou/ch10/g34246r46404'
p615
aS'http://www.dianping.com/quanzhou/ch10/g3017r13321'
p616
aS'http://www.dianping.com/quanzhou/ch10/g3017r13326'
p617
aS'http://www.dianping.com/quanzhou/ch10/g3017r13324'
p618
aS'http://www.dianping.com/quanzhou/ch10/g34240r36353'
p619
aS'http://www.dianping.com/quanzhou/ch10/g34278r46351'
p620
aS'http://www.dianping.com/quanzhou/ch10/g4473r30453'
p621
aS'http://www.dianping.com/quanzhou/ch10/g4583r27220'
p622
aS'http://www.dianping.com/quanzhou/ch10/g252r88402'
p623
aS'http://www.dianping.com/quanzhou/ch10/g4583r36353'
p624
aS'http://www.dianping.com/quanzhou/ch10/g4593r25347'
p625
aS'http://www.dianping.com/quanzhou/ch10/g252r46379'
p626
aS'http://www.dianping.com/quanzhou/ch10/g252r46374'
p627
aS'http://www.dianping.com/quanzhou/ch10/g32712r30453'
p628
aS'http://www.dianping.com/quanzhou/ch10/g32731r24520'
p629
aS'http://www.dianping.com/quanzhou/ch10/g247r13320'
p630
aS'http://www.dianping.com/quanzhou/ch10/g247r13323'
p631
aS'http://www.dianping.com/quanzhou/ch10/g32731r24523'
p632
aS'http://www.dianping.com/quanzhou/ch10/g247r13324'
p633
aS'http://www.dianping.com/quanzhou/ch10/g4581r4142'
p634
aS'http://www.dianping.com/quanzhou/ch10/g4581r4143'
p635
aS'http://www.dianping.com/quanzhou/ch10/g34224r27220'
p636
aS'http://www.dianping.com/quanzhou/ch10/g27823r13306'
p637
aS'http://www.dianping.com/quanzhou/ch10/g27823r13307'
p638
aS'http://www.dianping.com/quanzhou/ch10/g27823r13304'
p639
aS'http://www.dianping.com/quanzhou/ch10/g27823r13305'
p640
aS'http://www.dianping.com/quanzhou/ch10/g34246r65744'
p641
aS'http://www.dianping.com/quanzhou/ch10/g26483r30376'
p642
aS'http://www.dianping.com/quanzhou/ch10/g34065r36375'
p643
aS'http://www.dianping.com/quanzhou/ch10/g34246r64615'
p644
aS'http://www.dianping.com/quanzhou/ch10/g252r88408'
p645
aS'http://www.dianping.com/quanzhou/ch10/g33950r25353'
p646
aS'http://www.dianping.com/quanzhou/ch10/g33950r25350'
p647
aS'http://www.dianping.com/quanzhou/ch10/g33950r25355'
p648
aS'http://www.dianping.com/quanzhou/ch10/g226r4146'
p649
aS'http://www.dianping.com/quanzhou/ch10/g4583r88402'
p650
aS'http://www.dianping.com/quanzhou/ch10/g226r4143'
p651
aS'http://www.dianping.com/quanzhou/ch10/g226r4142'
p652
aS'http://www.dianping.com/quanzhou/ch10/g34063r25350'
p653
aS'http://www.dianping.com/quanzhou/ch10/g34237r89427'
p654
aS'http://www.dianping.com/quanzhou/ch10/g34243r88391'
p655
aS'http://www.dianping.com/quanzhou/ch10/g34243r88392'
p656
aS'http://www.dianping.com/quanzhou/ch10/g4473r46383'
p657
aS'http://www.dianping.com/quanzhou/ch10/g33916r4141'
p658
aS'http://www.dianping.com/quanzhou/ch10/g3027r27220'
p659
aS'http://www.dianping.com/quanzhou/ch10/g34243r88402'
p660
aS'http://www.dianping.com/quanzhou/ch10/g241r88402'
p661
aS'http://www.dianping.com/quanzhou/ch10/g32731r30453'
p662
aS'http://www.dianping.com/quanzhou/ch10/g34055'
p663
aS'http://www.dianping.com/quanzhou/ch10/g224r4144'
p664
aS'http://www.dianping.com/quanzhou/ch10/g224r4146'
p665
aS'http://www.dianping.com/quanzhou/ch10/g224r4141'
p666
aS'http://www.dianping.com/quanzhou/ch10/g4467r36375'
p667
aS'http://www.dianping.com/quanzhou/ch10/g224r4143'
p668
aS'http://www.dianping.com/quanzhou/ch10/g224r4142'
p669
aS'http://www.dianping.com/quanzhou/ch10/g34243r13322'
p670
aS'http://www.dianping.com/quanzhou/ch10/g33950r88408'
p671
aS'http://www.dianping.com/quanzhou/ch10/g34257r30453'
p672
aS'http://www.dianping.com/quanzhou/ch10/g32723r88389'
p673
aS'http://www.dianping.com/quanzhou/ch10/g4473r28424'
p674
aS'http://www.dianping.com/quanzhou/ch10/g33951r25347'
p675
aS'http://www.dianping.com/quanzhou/ch10/g241r28426'
p676
aS'http://www.dianping.com/quanzhou/ch10/g241r28427'
p677
aS'http://www.dianping.com/quanzhou/ch10/g34246r88402'
p678
aS'http://www.dianping.com/quanzhou/ch10/g241r28425'
p679
aS'http://www.dianping.com/quanzhou/ch10/g241r28423'
p680
aS'http://www.dianping.com/quanzhou/ch10/g3031r64615'
p681
aS'http://www.dianping.com/quanzhou/ch10/g34257r24523'
p682
aS'http://www.dianping.com/quanzhou/ch10/g34237r88391'
p683
aS'http://www.dianping.com/quanzhou/ch10/g34237r88392'
p684
aS'http://www.dianping.com/quanzhou/ch10/g34257r24520'
p685
aS'http://www.dianping.com/quanzhou/ch10/g34060r24523'
p686
aS'http://www.dianping.com/quanzhou/ch10/g34041r13305'
p687
aS'http://www.dianping.com/quanzhou/ch10/g34041r13309'
p688
aS'http://www.dianping.com/quanzhou/ch10/g3027r88402'
p689
aS'http://www.dianping.com/quanzhou/ch10/g34237r86537'
p690
aS'http://www.dianping.com/quanzhou/ch10/g4477r13308'
p691
aS'http://www.dianping.com/quanzhou/ch10/g4477r13306'
p692
aS'http://www.dianping.com/quanzhou/ch10/g3027r88408'
p693
aS'http://www.dianping.com/quanzhou/ch10/g4473r28423'
p694
aS'http://www.dianping.com/quanzhou/ch10/g208r36353'
p695
aS'http://www.dianping.com/quanzhou/ch10/g4473r86546'
p696
aS'http://www.dianping.com/quanzhou/ch10/g4581r13324'
p697
aS'http://www.dianping.com/quanzhou/ch10/g34242r13317'
p698
aS'http://www.dianping.com/quanzhou/ch10/g241r13305'
p699
aS'http://www.dianping.com/quanzhou/ch10/g32731r65744'
p700
aS'http://www.dianping.com/quanzhou/ch10/g34242r4142'
p701
aS'http://www.dianping.com/quanzhou/ch10/g34061r4143'
p702
aS'http://www.dianping.com/quanzhou/ch10/g34061r4142'
p703
aS'http://www.dianping.com/quanzhou/ch10/g34061r4141'
p704
aS'http://www.dianping.com/quanzhou/ch10/g34061r4146'
p705
aS'http://www.dianping.com/quanzhou/ch10/g34061r4145'
p706
aS'http://www.dianping.com/quanzhou/ch10/g34061r4144'
p707
aS'http://www.dianping.com/quanzhou/ch10/g32733r25356'
p708
aS'http://www.dianping.com/quanzhou/ch10/g32733r25355'
p709
aS'http://www.dianping.com/quanzhou/ch10/g32733r25353'
p710
aS'http://www.dianping.com/quanzhou/ch10/g32733r25350'
p711
aS'http://www.dianping.com/quanzhou/ch10/g2714'
p712
aS'http://www.dianping.com/quanzhou/ch10/g26483r13315'
p713
aS'http://www.dianping.com/quanzhou/ch10/g3027r86537'
p714
aS'http://www.dianping.com/quanzhou/ch10/g1909r13326'
p715
aS'http://www.dianping.com/quanzhou/ch10/g105r24523'
p716
aS'http://www.dianping.com/quanzhou/ch10/g34257r86546'
p717
aS'http://www.dianping.com/quanzhou/ch10/g34060r28424'
p718
aS'http://www.dianping.com/quanzhou/ch10/g3017r88408'
p719
aS'http://www.dianping.com/quanzhou/ch10/g34060r28423'
p720
aS'http://www.dianping.com/quanzhou/ch10/g34277r30453'
p721
aS'http://www.dianping.com/quanzhou/ch10/g3017r88402'
p722
aS'http://www.dianping.com/quanzhou/ch10/g252r86542'
p723
aS'http://www.dianping.com/quanzhou/ch10/g224r88391'
p724
aS'http://www.dianping.com/quanzhou/ch10/g3017r88392'
p725
aS'http://www.dianping.com/quanzhou/ch10/g34257r4143'
p726
aS'http://www.dianping.com/quanzhou/ch10/g3027r25348'
p727
aS'http://www.dianping.com/quanzhou/ch10/g34245r13326'
p728
aS'http://www.dianping.com/quanzhou/ch10/g3027r25347'
p729
aS'http://www.dianping.com/quanzhou/ch10/g34278r30453'
p730
aS'http://www.dianping.com/quanzhou/ch10/g34244r13326'
p731
aS'http://www.dianping.com/quanzhou/ch10/g34245r28427'
p732
aS'http://www.dianping.com/quanzhou/ch10/g34245r28426'
p733
aS'http://www.dianping.com/quanzhou/ch10/g34245r28425'
p734
aS'http://www.dianping.com/quanzhou/ch10/g34245r28424'
p735
aS'http://www.dianping.com/quanzhou/ch10/g34245r28423'
p736
aS'http://www.dianping.com/quanzhou/ch10/g32733r28424'
p737
aS'http://www.dianping.com/quanzhou/ch10/g3017r13319'
p738
aS'http://www.dianping.com/quanzhou/ch10/g3017r13316'
p739
aS'http://www.dianping.com/quanzhou/ch10/g3017r13315'
p740
aS'http://www.dianping.com/quanzhou/ch10/g3017r13314'
p741
aS'http://www.dianping.com/quanzhou/ch10/g3017r13313'
p742
aS'http://www.dianping.com/quanzhou/ch10/g3017r13311'
p743
aS'http://www.dianping.com/quanzhou/ch10/g3017r13310'
p744
aS'http://www.dianping.com/quanzhou/ch10/g208r88408'
p745
aS'http://www.dianping.com/quanzhou/ch10/g4473r27220'
p746
aS'http://www.dianping.com/quanzhou/ch10/g4469r13324'
p747
aS'http://www.dianping.com/quanzhou/ch10/g224r28424'
p748
aS'http://www.dianping.com/quanzhou/ch10/g4469r13326'
p749
aS'http://www.dianping.com/quanzhou/ch10/g224r28426'
p750
aS'http://www.dianping.com/quanzhou/ch10/g4469r13320'
p751
aS'http://www.dianping.com/quanzhou/ch10/g34277r25347'
p752
aS'http://www.dianping.com/quanzhou/ch10/g4469r13322'
p753
aS'http://www.dianping.com/quanzhou/ch10/g4469r13323'
p754
aS'http://www.dianping.com/quanzhou/ch10/g4469r88408'
p755
aS'http://www.dianping.com/quanzhou/ch10/g34277r25348'
p756
aS'http://www.dianping.com/quanzhou/ch10/g32726r4146'
p757
aS'http://www.dianping.com/quanzhou/ch10/g34066r4143'
p758
aS'http://www.dianping.com/quanzhou/ch10/g34240r30366'
p759
aS'http://www.dianping.com/quanzhou/ch10/g34246r27220'
p760
aS'http://www.dianping.com/quanzhou/ch10/g27823r88389'
p761
aS'http://www.dianping.com/quanzhou/ch10/g33951r4143'
p762
aS'http://www.dianping.com/quanzhou/ch10/g26483r30453'
p763
aS'http://www.dianping.com/quanzhou/ch10/g34241r13326'
p764
aS'http://www.dianping.com/quanzhou/ch10/g34223r13309'
p765
aS'http://www.dianping.com/quanzhou/ch10/g3023r25353'
p766
aS'http://www.dianping.com/quanzhou/ch10/g3023r25350'
p767
aS'http://www.dianping.com/quanzhou/ch10/g208r13315'
p768
aS'http://www.dianping.com/quanzhou/ch10/g3023r25355'
p769
aS'http://www.dianping.com/quanzhou/ch10/g34257r46379'
p770
aS'http://www.dianping.com/quanzhou/ch10/g32731r27220'
p771
aS'http://www.dianping.com/quanzhou/ch10/g34246r28424'
p772
aS'http://www.dianping.com/quanzhou/ch10/g34246r28425'
p773
aS'http://www.dianping.com/quanzhou/ch10/g34246r28423'
p774
aS'http://www.dianping.com/quanzhou/ch10/g4593r25356'
p775
aS'http://www.dianping.com/quanzhou/ch10/g1453r30453'
p776
aS'http://www.dianping.com/quanzhou/ch10/g34240r13312'
p777
aS'http://www.dianping.com/quanzhou/ch10/g34240r13313'
p778
aS'http://www.dianping.com/quanzhou/ch10/g34240r13310'
p779
aS'http://www.dianping.com/quanzhou/ch10/g34240r13311'
p780
aS'http://www.dianping.com/quanzhou/ch10/g34240r13316'
p781
aS'http://www.dianping.com/quanzhou/ch10/g34240r13317'
p782
aS'http://www.dianping.com/quanzhou/ch10/g34240r13314'
p783
aS'http://www.dianping.com/quanzhou/ch10/g34240r13315'
p784
aS'http://www.dianping.com/quanzhou/ch10/g34240r13319'
p785
aS'http://www.dianping.com/quanzhou/ch10/g252r46361'
p786
aS'http://www.dianping.com/quanzhou/ch10/g252r46360'
p787
aS'http://www.dianping.com/quanzhou/ch10/g247r36353'
p788
aS'http://www.dianping.com/quanzhou/ch10/g247r25348'
p789
aS'http://www.dianping.com/quanzhou/ch10/g252r46369'
p790
aS'http://www.dianping.com/quanzhou/ch10/g33924r27220'
p791
aS'http://www.dianping.com/quanzhou/ch10/g34246r88392'
p792
aS'http://www.dianping.com/quanzhou/ch10/g27823r13311'
p793
aS'http://www.dianping.com/quanzhou/ch10/g27823r13313'
p794
aS'http://www.dianping.com/quanzhou/ch10/g27823r13312'
p795
aS'http://www.dianping.com/quanzhou/ch10/g27823r13315'
p796
aS'http://www.dianping.com/quanzhou/ch10/g27823r13314'
p797
aS'http://www.dianping.com/quanzhou/ch10/g27823r13317'
p798
aS'http://www.dianping.com/quanzhou/ch10/g27823r13316'
p799
aS'http://www.dianping.com/quanzhou/ch10/g27823r13319'
p800
aS'http://www.dianping.com/quanzhou/ch10/g27823r13318'
p801
aS'http://www.dianping.com/quanzhou/ch10/g1338r27802'
p802
aS'http://www.dianping.com/quanzhou/ch10/g4481r30453'
p803
aS'http://www.dianping.com/quanzhou/ch10/g4583r4143'
p804
aS'http://www.dianping.com/quanzhou/ch10/g34061r88389'
p805
aS'http://www.dianping.com/quanzhou/ch10/g105r30376'
p806
aS'http://www.dianping.com/quanzhou/ch10/g4469r27803'
p807
aS'http://www.dianping.com/quanzhou/ch10/g33950r25347'
p808
aS'http://www.dianping.com/quanzhou/ch10/g34237r13322'
p809
aS'http://www.dianping.com/quanzhou/ch10/g34237r65745'
p810
aS'http://www.dianping.com/quanzhou/ch10/g34237r65742'
p811
aS'http://www.dianping.com/quanzhou/ch10/g34223r30453'
p812
aS'http://www.dianping.com/quanzhou/ch10/g34237r64615'
p813
aS'http://www.dianping.com/quanzhou/ch10/g34237r65748'
p814
aS'http://www.dianping.com/quanzhou/ch10/g34041r88389'
p815
aS'http://www.dianping.com/quanzhou/ch10/g1909r25355'
p816
aS'http://www.dianping.com/quanzhou/ch10/g224r30453'
p817
aS'http://www.dianping.com/quanzhou/ch10/g34257r27220'
p818
aS'http://www.dianping.com/quanzhou/ch10/g32733r24523'
p819
aS'http://www.dianping.com/quanzhou/ch10/g32733r24520'
p820
aS'http://www.dianping.com/quanzhou/ch10/g32731r13304'
p821
aS'http://www.dianping.com/quanzhou/ch10/g25151r36375'
p822
aS'http://www.dianping.com/quanzhou/ch10/g252r89427'
p823
aS'http://www.dianping.com/quanzhou/ch10/g105r25351'
p824
aS'http://www.dianping.com/quanzhou/ch10/g33950r46405'
p825
aS'http://www.dianping.com/quanzhou/ch10/g34245r13324'
p826
aS'http://www.dianping.com/quanzhou/ch10/g34245r13322'
p827
aS'http://www.dianping.com/quanzhou/ch10/g34245r13323'
p828
aS'http://www.dianping.com/quanzhou/ch10/g34245r13320'
p829
aS'http://www.dianping.com/quanzhou/ch10/g34245r13321'
p830
aS'http://www.dianping.com/quanzhou/ch10/g1785r27220'
p831
aS'http://www.dianping.com/quanzhou/ch10/g32726r4142'
p832
aS'http://www.dianping.com/quanzhou/ch10/g32733r88402'
p833
aS'http://www.dianping.com/quanzhou/ch10/g252r88392'
p834
aS'http://www.dianping.com/quanzhou/ch10/g252r88391'
p835
aS'http://www.dianping.com/quanzhou/ch10/g224r88402'
p836
aS'http://www.dianping.com/quanzhou/ch10/g34257r28423'
p837
aS'http://www.dianping.com/quanzhou/ch10/g34257r28426'
p838
aS'http://www.dianping.com/quanzhou/ch10/g34257r28424'
p839
aS'http://www.dianping.com/quanzhou/ch10/g34041r13311'
p840
aS'http://www.dianping.com/quanzhou/ch10/g34041r13313'
p841
aS'http://www.dianping.com/quanzhou/ch10/g34041r13312'
p842
aS'http://www.dianping.com/quanzhou/ch10/g34041r13315'
p843
aS'http://www.dianping.com/quanzhou/ch10/g34041r13317'
p844
aS'http://www.dianping.com/quanzhou/ch10/g34041r13319'
p845
aS'http://www.dianping.com/quanzhou/ch10/g34237r88389'
p846
aS'http://www.dianping.com/quanzhou/ch10/g105r25350'
p847
aS'http://www.dianping.com/quanzhou/ch10/g225r4142'
p848
aS'http://www.dianping.com/quanzhou/ch10/g105r25353'
p849
aS'http://www.dianping.com/quanzhou/ch10/g105r25355'
p850
aS'http://www.dianping.com/quanzhou/ch10/g105r25356'
p851
aS'http://www.dianping.com/quanzhou/ch10/g34237r13320'
p852
aS'http://www.dianping.com/quanzhou/ch10/g34237r86528'
p853
aS'http://www.dianping.com/quanzhou/ch10/g34256r25356'
p854
aS'http://www.dianping.com/quanzhou/ch10/g4477r13311'
p855
aS'http://www.dianping.com/quanzhou/ch10/g4477r13313'
p856
aS'http://www.dianping.com/quanzhou/ch10/g4597r13326'
p857
aS'http://www.dianping.com/quanzhou/ch10/g4477r13315'
p858
aS'http://www.dianping.com/quanzhou/ch10/g4477r13316'
p859
aS'http://www.dianping.com/quanzhou/ch10/g4477r13317'
p860
aS'http://www.dianping.com/quanzhou/ch10/g4477r13319'
p861
aS'http://www.dianping.com/quanzhou/ch10/g4477r25355'
p862
aS'http://www.dianping.com/quanzhou/ch10/g1785r28424'
p863
aS'http://www.dianping.com/quanzhou/ch10/g4477r25350'
p864
aS'http://www.dianping.com/quanzhou/ch10/g4477r25353'
p865
aS'http://www.dianping.com/quanzhou/ch10/g4477r86528'
p866
aS'http://www.dianping.com/quanzhou/ch10/g34237r13326'
p867
aS'http://www.dianping.com/quanzhou/ch10/g32730r13322'
p868
aS'http://www.dianping.com/quanzhou/ch10/g34256r25355'
p869
aS'http://www.dianping.com/quanzhou/ch10/g27823r27220'
p870
aS'http://www.dianping.com/quanzhou/ch10/g105r13324'
p871
aS'http://www.dianping.com/quanzhou/ch10/g105r13326'
p872
aS'http://www.dianping.com/quanzhou/ch10/g34256r25350'
p873
aS'http://www.dianping.com/quanzhou/ch10/g1453r4141'
p874
aS'http://www.dianping.com/quanzhou/ch10/g1453r4143'
p875
aS'http://www.dianping.com/quanzhou/ch10/g1453r4142'
p876
aS'http://www.dianping.com/quanzhou/ch10/g34256r30376'
p877
aS'http://www.dianping.com/quanzhou/ch10/g1453r4144'
p878
aS'http://www.dianping.com/quanzhou/ch10/g225r64615'
p879
aS'http://www.dianping.com/quanzhou/ch10/g32733r25347'
p880
aS'http://www.dianping.com/quanzhou/ch10/g4477r30376'
p881
aS'http://www.dianping.com/quanzhou/ch10/g33924r25347'
p882
aS'http://www.dianping.com/quanzhou/ch10/g4447r64615'
p883
aS'http://www.dianping.com/quanzhou/ch10/g33924r25348'
p884
aS'http://www.dianping.com/quanzhou/ch10/g34257r27800'
p885
aS'http://www.dianping.com/quanzhou/ch10/g34257r27803'
p886
aS'http://www.dianping.com/quanzhou/ch10/g34257r27802'
p887
aS'http://www.dianping.com/quanzhou/ch10/g252r13320'
p888
aS'http://www.dianping.com/quanzhou/ch10/g252r28023'
p889
aS'http://www.dianping.com/quanzhou/ch10/g34246r13308'
p890
aS'http://www.dianping.com/quanzhou/ch10/g4449r27220'
p891
aS'http://www.dianping.com/quanzhou/ch10/g3017r88389'
p892
aS'http://www.dianping.com/quanzhou/ch10/g32727r4142'
p893
aS'http://www.dianping.com/quanzhou/ch10/g32727r4146'
p894
aS'http://www.dianping.com/quanzhou/ch10/g32727r4145'
p895
aS'http://www.dianping.com/quanzhou/ch10/g1338r28425'
p896
aS'http://www.dianping.com/quanzhou/ch10/g1338r28424'
p897
aS'http://www.dianping.com/quanzhou/ch10/g4467r13323'
p898
aS'http://www.dianping.com/quanzhou/ch10/g105r28023'
p899
aS'http://www.dianping.com/quanzhou/ch10/g4469r30357'
p900
aS'http://www.dianping.com/quanzhou/ch10/g4351r86538'
p901
aS'http://www.dianping.com/quanzhou/ch10/g34246r86538'
p902
aS'http://www.dianping.com/quanzhou/ch10/g34245r88408'
p903
aS'http://www.dianping.com/quanzhou/ch10/g34246r86537'
p904
aS'http://www.dianping.com/quanzhou/ch10/g32712r4142'
p905
aS'http://www.dianping.com/quanzhou/ch10/g32712r4143'
p906
aS'http://www.dianping.com/quanzhou/ch10/g32712r4141'
p907
aS'http://www.dianping.com/quanzhou/ch10/g1909r4141'
p908
aS'http://www.dianping.com/quanzhou/ch10/g32712r4144'
p909
aS'http://www.dianping.com/quanzhou/ch10/g1909r4142'
p910
aS'http://www.dianping.com/quanzhou/ch10/g4351r24523'
p911
aS'http://www.dianping.com/quanzhou/ch10/g27823r36373'
p912
aS'http://www.dianping.com/quanzhou/ch10/g34040r25348'
p913
aS'http://www.dianping.com/quanzhou/ch10/g3017r13304'
p914
aS'http://www.dianping.com/quanzhou/ch10/g3017r13305'
p915
aS'http://www.dianping.com/quanzhou/ch10/g3017r13306'
p916
aS'http://www.dianping.com/quanzhou/ch10/g27823r36375'
p917
aS'http://www.dianping.com/quanzhou/ch10/g3017r13308'
p918
aS'http://www.dianping.com/quanzhou/ch10/g34257r46386'
p919
aS'http://www.dianping.com/quanzhou/ch10/g34257r46383'
p920
aS'http://www.dianping.com/quanzhou/ch10/g34040r25347'
p921
aS'http://www.dianping.com/quanzhou/ch10/g4469r36375'
p922
aS'http://www.dianping.com/quanzhou/ch10/g34277r25351'
p923
aS'http://www.dianping.com/quanzhou/ch10/g34277r25355'
p924
aS'http://www.dianping.com/quanzhou/ch10/g34277r25356'
p925
aS'http://www.dianping.com/quanzhou/ch10/g208r30376'
p926
aS'http://www.dianping.com/quanzhou/ch10/g34240r30376'
p927
aS'http://www.dianping.com/quanzhou/ch10/g27823r4146'
p928
aS'http://www.dianping.com/quanzhou/ch10/g27823r4141'
p929
aS'http://www.dianping.com/quanzhou/ch10/g27823r4143'
p930
aS'http://www.dianping.com/quanzhou/ch10/g27823r4142'
p931
aS'http://www.dianping.com/quanzhou/ch10/g33951r13317'
p932
aS'http://www.dianping.com/quanzhou/ch10/g33951r13312'
p933
aS'http://www.dianping.com/quanzhou/ch10/g34240r36375'
p934
aS'http://www.dianping.com/quanzhou/ch10/g34223r13312'
p935
aS'http://www.dianping.com/quanzhou/ch10/g3023r25347'
p936
aS'http://www.dianping.com/quanzhou/ch10/g4449r64615'
p937
aS'http://www.dianping.com/quanzhou/ch10/g3023r25348'
p938
aS'http://www.dianping.com/quanzhou/ch10/g4583r36375'
p939
aS'http://www.dianping.com/quanzhou/ch10/g32730r30376'
p940
aS'http://www.dianping.com/quanzhou/ch10/g248r30453'
p941
aS'http://www.dianping.com/quanzhou/ch10/g34240r13305'
p942
aS'http://www.dianping.com/quanzhou/ch10/g34240r13304'
p943
aS'http://www.dianping.com/quanzhou/ch10/g34240r13307'
p944
aS'http://www.dianping.com/quanzhou/ch10/g34240r13306'
p945
aS'http://www.dianping.com/quanzhou/ch10/g34240r13309'
p946
aS'http://www.dianping.com/quanzhou/ch10/g34240r13308'
p947
aS'http://www.dianping.com/quanzhou/ch10/g208r28426'
p948
aS'http://www.dianping.com/quanzhou/ch10/g34246r88389'
p949
aS'http://www.dianping.com/quanzhou/ch10/g208r28424'
p950
aS'http://www.dianping.com/quanzhou/ch10/g27823r13324'
p951
aS'http://www.dianping.com/quanzhou/ch10/g247r25350'
p952
aS'http://www.dianping.com/quanzhou/ch10/g225r25348'
p953
aS'http://www.dianping.com/quanzhou/ch10/g27823r13320'
p954
aS'http://www.dianping.com/quanzhou/ch10/g247r25354'
p955
aS'http://www.dianping.com/quanzhou/ch10/g27823r13322'
p956
aS'http://www.dianping.com/quanzhou/ch10/g27823r13323'
p957
aS'http://www.dianping.com/quanzhou/ch10/g1453r4145'
p958
aS'http://www.dianping.com/quanzhou/ch10/g248r89506'
p959
aS'http://www.dianping.com/quanzhou/ch10/g225r25347'
p960
aS'http://www.dianping.com/quanzhou/ch10/g34063r4141'
p961
aS'http://www.dianping.com/quanzhou/ch10/g32733r36353'
p962
aS'http://www.dianping.com/quanzhou/ch10/g34063r4142'
p963
aS'http://www.dianping.com/quanzhou/ch10/g34063r4145'
p964
aS'http://www.dianping.com/quanzhou/ch10/g34063r4144'
p965
aS'http://www.dianping.com/quanzhou/ch10/g201r25355'
p966
aS'http://www.dianping.com/quanzhou/ch10/g34225r4141'
p967
aS'http://www.dianping.com/quanzhou/ch10/g34225r4143'
p968
aS'http://www.dianping.com/quanzhou/ch10/g1805r4142'
p969
aS'http://www.dianping.com/quanzhou/ch10/g1805r4143'
p970
aS'http://www.dianping.com/quanzhou/ch10/g1805r4141'
p971
aS'http://www.dianping.com/quanzhou/ch10/g4467r24523'
p972
aS'http://www.dianping.com/quanzhou/ch10/g32731r28423'
p973
aS'http://www.dianping.com/quanzhou/ch10/g34257r13319'
p974
aS'http://www.dianping.com/quanzhou/ch10/g34257r13312'
p975
aS'http://www.dianping.com/quanzhou/ch10/g34257r13316'
p976
aS'http://www.dianping.com/quanzhou/ch10/g34257r13317'
p977
aS'http://www.dianping.com/quanzhou/ch10/g34257r13314'
p978
aS'http://www.dianping.com/quanzhou/ch10/g34257r13315'
p979
aS'http://www.dianping.com/quanzhou/ch10/g241r88392'
p980
aS'http://www.dianping.com/quanzhou/ch10/g32730r27802'
p981
aS'http://www.dianping.com/quanzhou/ch10/g1785r13307'
p982
aS'http://www.dianping.com/quanzhou/ch10/g32730r4145'
p983
aS'http://www.dianping.com/quanzhou/ch10/g3023r88402'
p984
aS'http://www.dianping.com/quanzhou/ch10/g32730r4143'
p985
aS'http://www.dianping.com/quanzhou/ch10/g32723r30453'
p986
aS'http://www.dianping.com/quanzhou/ch10/g3023r88408'
p987
aS'http://www.dianping.com/quanzhou/ch10/g32733r27220'
p988
aS'http://www.dianping.com/quanzhou/ch10/g33924r30453'
p989
aS'http://www.dianping.com/quanzhou/ch10/g203r13311'
p990
aS'http://www.dianping.com/quanzhou/ch10/g105r36353'
p991
aS'http://www.dianping.com/quanzhou/ch10/g252r25347'
p992
aS'http://www.dianping.com/quanzhou/ch10/g252r25348'
p993
aS'http://www.dianping.com/quanzhou/ch10/g252r24520'
p994
aS'http://www.dianping.com/quanzhou/ch10/g219'
p995
aS'http://www.dianping.com/quanzhou/ch10/g252r88389'
p996
aS'http://www.dianping.com/quanzhou/ch10/g34041r13324'
p997
aS'http://www.dianping.com/quanzhou/ch10/g34041r13326'
p998
aS'http://www.dianping.com/quanzhou/ch10/g1805r13326'
p999
aS'http://www.dianping.com/quanzhou/ch10/g32731r28426'
p1000
aS'http://www.dianping.com/quanzhou/ch10/g34246r27802'
p1001
aS'http://www.dianping.com/quanzhou/ch10/g34246r27801'
p1002
aS'http://www.dianping.com/quanzhou/ch10/g34246r27800'
p1003
aS'http://www.dianping.com/quanzhou/ch10/g34243r13326'
p1004
aS'http://www.dianping.com/quanzhou/ch10/g3027r46383'
p1005
aS'http://www.dianping.com/quanzhou/ch10/g1338r25348'
p1006
aS'http://www.dianping.com/quanzhou/ch10/g2951r4143'
p1007
aS'http://www.dianping.com/quanzhou/ch10/g1338r25347'
p1008
aS'http://www.dianping.com/quanzhou/ch10/g2951r4142'
p1009
aS'http://www.dianping.com/quanzhou/ch10/g250r30453'
p1010
aS'http://www.dianping.com/quanzhou/ch10/g32723r25347'
p1011
aS'http://www.dianping.com/quanzhou/ch10/g4601r4141'
p1012
aS'http://www.dianping.com/quanzhou/ch10/g4601r4143'
p1013
aS'http://www.dianping.com/quanzhou/ch10/g4601r4144'
p1014
aS'http://www.dianping.com/quanzhou/ch10/g4477r25347'
p1015
aS'http://www.dianping.com/quanzhou/ch10/g4473r86528'
p1016
aS'http://www.dianping.com/quanzhou/ch10/g225r30376'
p1017
aS'http://www.dianping.com/quanzhou/ch10/g27823r36353'
p1018
aS'http://www.dianping.com/quanzhou/ch10/g4477r25348'
p1019
aS'http://www.dianping.com/quanzhou/ch10/g32730r13312'
p1020
aS'http://www.dianping.com/quanzhou/ch10/g4447r28425'
p1021
aS'http://www.dianping.com/quanzhou/ch10/g4447r28424'
p1022
aS'http://www.dianping.com/quanzhou/ch10/g4447r28426'
p1023
aS'http://www.dianping.com/quanzhou/ch10/g32730r13319'
p1024
aS'http://www.dianping.com/quanzhou/ch10/g33950r65744'
p1025
aS'http://www.dianping.com/quanzhou/ch10/g34237r25347'
p1026
aS'http://www.dianping.com/quanzhou/ch10/g26482r25355'
p1027
aS'http://www.dianping.com/quanzhou/ch10/g26482r25350'
p1028
aS'http://www.dianping.com/quanzhou/ch10/g34237r25348'
p1029
aS'http://www.dianping.com/quanzhou/ch10/g4477r30366'
p1030
aS'http://www.dianping.com/quanzhou/ch10/g32731r88408'
p1031
aS'http://www.dianping.com/quanzhou/ch10/g1338r36375'
p1032
aS'http://www.dianping.com/quanzhou/ch10/g253r13313'
p1033
aS'http://www.dianping.com/quanzhou/ch10/g32731r88402'
p1034
aS'http://www.dianping.com/quanzhou/ch10/g33924r25356'
p1035
aS'http://www.dianping.com/quanzhou/ch10/g33924r25355'
p1036
aS'http://www.dianping.com/quanzhou/ch10/g252r86546'
p1037
aS'http://www.dianping.com/quanzhou/ch10/g241r27220'
p1038
aS'http://www.dianping.com/quanzhou/ch10/g34240r24520'
p1039
aS'http://www.dianping.com/quanzhou/ch10/g252r30357'
p1040
aS'http://www.dianping.com/quanzhou/ch10/g248r13312'
p1041
aS'http://www.dianping.com/quanzhou/ch10/g105r88389'
p1042
aS'http://www.dianping.com/quanzhou/ch10/g25151r4141'
p1043
aS'http://www.dianping.com/quanzhou/ch10/g25151r4143'
p1044
aS'http://www.dianping.com/quanzhou/ch10/g25151r4142'
p1045
aS'http://www.dianping.com/quanzhou/ch10/g34246r13304'
p1046
aS'http://www.dianping.com/quanzhou/ch10/g226r24523'
p1047
aS'http://www.dianping.com/quanzhou/ch10/g25151r4146'
p1048
aS'http://www.dianping.com/quanzhou/ch10/g241r4144'
p1049
aS'http://www.dianping.com/quanzhou/ch10/g241r4145'
p1050
aS'http://www.dianping.com/quanzhou/ch10/g241r4146'
p1051
aS'http://www.dianping.com/quanzhou/ch10/g241r4141'
p1052
aS'http://www.dianping.com/quanzhou/ch10/g241r4142'
p1053
aS'http://www.dianping.com/quanzhou/ch10/g241r4143'
p1054
aS'http://www.dianping.com/quanzhou/ch10/g34060r86538'
p1055
aS'http://www.dianping.com/quanzhou/ch10/g34243r4145'
p1056
aS'http://www.dianping.com/quanzhou/ch10/g34243r4144'
p1057
aS'http://www.dianping.com/quanzhou/ch10/g3233r25347'
p1058
aS'http://www.dianping.com/quanzhou/ch10/g34243r4146'
p1059
aS'http://www.dianping.com/quanzhou/ch10/g34243r4141'
p1060
aS'http://www.dianping.com/quanzhou/ch10/g3027r30453'
p1061
aS'http://www.dianping.com/quanzhou/ch10/g34243r4143'
p1062
aS'http://www.dianping.com/quanzhou/ch10/g34243r4142'
p1063
aS'http://www.dianping.com/quanzhou/ch10/g33951r28426'
p1064
aS'http://www.dianping.com/quanzhou/ch10/g208r13305'
p1065
aS'http://www.dianping.com/quanzhou/ch10/g208r13306'
p1066
aS'http://www.dianping.com/quanzhou/ch10/g208r13308'
p1067
aS'http://www.dianping.com/quanzhou/ch10/g34246r86528'
p1068
aS'http://www.dianping.com/quanzhou/ch10/g2887r13326'
p1069
aS'http://www.dianping.com/quanzhou/ch10/g4351r25347'
p1070
aS'http://www.dianping.com/quanzhou/ch10/g34237r27803'
p1071
aS'http://www.dianping.com/quanzhou/ch10/g34237r27802'
p1072
aS'http://www.dianping.com/quanzhou/ch10/g34237r27801'
p1073
aS'http://www.dianping.com/quanzhou/ch10/g34237r27800'
p1074
aS'http://www.dianping.com/quanzhou/ch10/g250r13307'
p1075
aS'http://www.dianping.com/quanzhou/ch10/g250r13306'
p1076
aS'http://www.dianping.com/quanzhou/ch10/g250r13305'
p1077
aS'http://www.dianping.com/quanzhou/ch10/g34040r25350'
p1078
aS'http://www.dianping.com/quanzhou/ch10/g33924r86537'
p1079
aS'http://www.dianping.com/quanzhou/ch10/g34040r25356'
p1080
aS'http://www.dianping.com/quanzhou/ch10/g34240r13321'
p1081
aS'http://www.dianping.com/quanzhou/ch10/g34223r88389'
p1082
aS'http://www.dianping.com/quanzhou/ch10/g34245r36354'
p1083
aS'http://www.dianping.com/quanzhou/ch10/g34245r36353'
p1084
aS'http://www.dianping.com/quanzhou/ch10/g208r30366'
p1085
aS'http://www.dianping.com/quanzhou/ch10/g241r65745'
p1086
aS'http://www.dianping.com/quanzhou/ch10/g4351r13312'
p1087
aS'http://www.dianping.com/quanzhou/ch10/g241r64615'
p1088
aS'http://www.dianping.com/quanzhou/ch10/g3233r30453'
p1089
aS'http://www.dianping.com/quanzhou/ch10/g4473r13309'
p1090
aS'http://www.dianping.com/quanzhou/ch10/g4473r13308'
p1091
aS'http://www.dianping.com/quanzhou/ch10/g34279r4144'
p1092
aS'http://www.dianping.com/quanzhou/ch10/g34279r4141'
p1093
aS'http://www.dianping.com/quanzhou/ch10/g34279r4142'
p1094
aS'http://www.dianping.com/quanzhou/ch10/g34279r4143'
p1095
aS'http://www.dianping.com/quanzhou/ch10/g4473r30357'
p1096
aS'http://www.dianping.com/quanzhou/ch10/g33950r86542'
p1097
aS'http://www.dianping.com/quanzhou/ch10/g225r25355'
p1098
aS'http://www.dianping.com/quanzhou/ch10/g225r25350'
p1099
aS'http://www.dianping.com/quanzhou/ch10/g4473r13306'
p1100
aS'http://www.dianping.com/quanzhou/ch10/g4473r13305'
p1101
aS'http://www.dianping.com/quanzhou/ch10/g4481r13326'
p1102
aS'http://www.dianping.com/quanzhou/ch10/g4467r28023'
p1103
aS'http://www.dianping.com/quanzhou/ch10/g4473r13304'
p1104
aS'http://www.dianping.com/quanzhou/ch10/g4481r13322'
p1105
aS'http://www.dianping.com/quanzhou/ch10/g4303r13319'
p1106
aS'http://www.dianping.com/quanzhou/ch10/g34257r13309'
p1107
aS'http://www.dianping.com/quanzhou/ch10/g34257r13308'
p1108
aS'http://www.dianping.com/quanzhou/ch10/g34277r86528'
p1109
aS'http://www.dianping.com/quanzhou/ch10/g247r86546'
p1110
aS'http://www.dianping.com/quanzhou/ch10/g247r36375'
p1111
aS'http://www.dianping.com/quanzhou/ch10/g34225r30376'
p1112
aS'http://www.dianping.com/quanzhou/ch10/g34257r13306'
p1113
aS'http://www.dianping.com/quanzhou/ch10/g4273r4141'
p1114
aS'http://www.dianping.com/quanzhou/ch10/g4273r4142'
p1115
aS'http://www.dianping.com/quanzhou/ch10/g4273r4143'
p1116
aS'http://www.dianping.com/quanzhou/ch10/g4273r4144'
p1117
aS'http://www.dianping.com/quanzhou/ch10/g4273r4145'
p1118
aS'http://www.dianping.com/quanzhou/ch10/g34243r36375'
p1119
aS'http://www.dianping.com/quanzhou/ch10/g1785r27800'
p1120
aS'http://www.dianping.com/quanzhou/ch10/g27823r30357'
p1121
aS'http://www.dianping.com/quanzhou/ch10/g34257r36353'
p1122
aS'http://www.dianping.com/quanzhou/ch10/g203r13307'
p1123
aS'http://www.dianping.com/quanzhou/ch10/g4469r30453'
p1124
aS'http://www.dianping.com/quanzhou/ch10/g203r13308'
p1125
aS'http://www.dianping.com/quanzhou/ch10/g2243r4145'
p1126
aS'http://www.dianping.com/quanzhou/ch10/g2243r4144'
p1127
aS'http://www.dianping.com/quanzhou/ch10/g27823r27800'
p1128
aS'http://www.dianping.com/quanzhou/ch10/g252r25350'
p1129
aS'http://www.dianping.com/quanzhou/ch10/g2243r4141'
p1130
aS'http://www.dianping.com/quanzhou/ch10/g252r25356'
p1131
aS'http://www.dianping.com/quanzhou/ch10/g252r25355'
p1132
aS'http://www.dianping.com/quanzhou/ch10/g2243r4142'
p1133
aS'http://www.dianping.com/quanzhou/ch10/g34237r89506'
p1134
aS'http://www.dianping.com/quanzhou/ch10/g25151r36353'
p1135
aS'http://www.dianping.com/quanzhou/ch10/g4481r4145'
p1136
aS'http://www.dianping.com/quanzhou/ch10/g34245r88389'
p1137
aS'http://www.dianping.com/quanzhou/ch10/g34245r13304'
p1138
aS'http://www.dianping.com/quanzhou/ch10/g34245r13305'
p1139
aS'http://www.dianping.com/quanzhou/ch10/g34245r13306'
p1140
aS'http://www.dianping.com/quanzhou/ch10/g34245r13307'
p1141
aS'http://www.dianping.com/quanzhou/ch10/g34245r13308'
p1142
aS'http://www.dianping.com/quanzhou/ch10/g34245r13309'
p1143
aS'http://www.dianping.com/quanzhou/ch10/g1338r30453'
p1144
aS'http://www.dianping.com/quanzhou/ch10/g4469r25350'
p1145
aS'http://www.dianping.com/quanzhou/ch10/g26483r64615'
p1146
aS'http://www.dianping.com/quanzhou/ch10/g4473r28425'
p1147
aS'http://www.dianping.com/quanzhou/ch10/g33950r4143'
p1148
aS'http://www.dianping.com/quanzhou/ch10/g33950r4142'
p1149
aS'http://www.dianping.com/quanzhou/ch10/g33950r4141'
p1150
aS'http://www.dianping.com/quanzhou/ch10/g33950r4146'
p1151
aS'http://www.dianping.com/quanzhou/ch10/g34060r89506'
p1152
aS'http://www.dianping.com/quanzhou/ch10/g33950r4144'
p1153
aS'http://www.dianping.com/quanzhou/ch10/g1338r25356'
p1154
aS'http://www.dianping.com/quanzhou/ch10/g1338r25355'
p1155
aS'http://www.dianping.com/quanzhou/ch10/g1338r25353'
p1156
aS'http://www.dianping.com/quanzhou/ch10/g1338r25350'
p1157
aS'http://www.dianping.com/quanzhou/ch10/g4273r64615'
p1158
aS'http://www.dianping.com/quanzhou/ch10/g247r30366'
p1159
aS'http://www.dianping.com/quanzhou/ch10/g34237r46354'
p1160
aS'http://www.dianping.com/quanzhou/ch10/g34237r46352'
p1161
aS'http://www.dianping.com/quanzhou/ch10/g4473r86538'
p1162
aS'http://www.dianping.com/quanzhou/ch10/g1909r4144'
p1163
aS'http://www.dianping.com/quanzhou/ch10/g4473r86537'
p1164
aS'http://www.dianping.com/quanzhou/ch10/g34065r4144'
p1165
aS'http://www.dianping.com/quanzhou/ch10/g34065r4143'
p1166
aS'http://www.dianping.com/quanzhou/ch10/g34065r4142'
p1167
aS'http://www.dianping.com/quanzhou/ch10/g34065r4141'
p1168
aS'http://www.dianping.com/quanzhou/ch10/g34245r30376'
p1169
aS'http://www.dianping.com/quanzhou/ch10/g1909r4146'
p1170
aS'http://www.dianping.com/quanzhou/ch10/g33950r27800'
p1171
aS'http://www.dianping.com/quanzhou/ch10/g33950r46354'
p1172
aS'http://www.dianping.com/quanzhou/ch10/g33950r27802'
p1173
aS'http://www.dianping.com/quanzhou/ch10/g34257r4142'
p1174
aS'http://www.dianping.com/quanzhou/ch10/g27823r86542'
p1175
aS'http://www.dianping.com/quanzhou/ch10/g34237r25355'
p1176
aS'http://www.dianping.com/quanzhou/ch10/g4481r36353'
p1177
aS'http://www.dianping.com/quanzhou/ch10/g34237r25356'
p1178
aS'http://www.dianping.com/quanzhou/ch10/g34237r25351'
p1179
aS'http://www.dianping.com/quanzhou/ch10/g34237r25350'
p1180
aS'http://www.dianping.com/quanzhou/ch10/g34237r25353'
p1181
aS'http://www.dianping.com/quanzhou/ch10/g105r13304'
p1182
aS'http://www.dianping.com/quanzhou/ch10/g34223r27801'
p1183
aS'http://www.dianping.com/quanzhou/ch10/g26482r25347'
p1184
aS'http://www.dianping.com/quanzhou/ch10/g34223r27802'
p1185
aS'http://www.dianping.com/quanzhou/ch10/g4449r27800'
p1186
aS'http://www.dianping.com/quanzhou/ch10/g4449r27802'
p1187
aS'http://www.dianping.com/quanzhou/ch10/g252r86538'
p1188
aS'http://www.dianping.com/quanzhou/ch10/g253r13326'
p1189
aS'http://www.dianping.com/quanzhou/ch10/g252r86537'
p1190
aS'http://www.dianping.com/quanzhou/ch10/g4467r4146'
p1191
aS'http://www.dianping.com/quanzhou/ch10/g248r27800'
p1192
aS'http://www.dianping.com/quanzhou/ch10/g34279r25347'
p1193
aS'http://www.dianping.com/quanzhou/ch10/g4481r30376'
p1194
aS'http://www.dianping.com/quanzhou/ch10/g4593r28424'
p1195
aS'http://www.dianping.com/quanzhou/ch10/g105r88402'
p1196
aS'http://www.dianping.com/quanzhou/ch10/g105r88408'
p1197
aS'http://www.dianping.com/quanzhou/ch10/g26482r30453'
p1198
aS'http://www.dianping.com/quanzhou/ch10/g247r28023'
p1199
aS'http://www.dianping.com/quanzhou/ch10/g3233r25355'
p1200
aS'http://www.dianping.com/quanzhou/ch10/g208r13313'
p1201
aS'http://www.dianping.com/quanzhou/ch10/g208r13317'
p1202
aS'http://www.dianping.com/quanzhou/ch10/g34246r25348'
p1203
aS'http://www.dianping.com/quanzhou/ch10/g247r25351'
p1204
aS'http://www.dianping.com/quanzhou/ch10/g34246r25347'
p1205
aS'http://www.dianping.com/quanzhou/ch10/g208r13319'
p1206
aS'http://www.dianping.com/quanzhou/ch10/g208r13318'
p1207
aS'http://www.dianping.com/quanzhou/ch10/g4469r30376'
p1208
aS'http://www.dianping.com/quanzhou/ch10/g34041r25355'
p1209
aS'http://www.dianping.com/quanzhou/ch10/g34041r25356'
p1210
aS'http://www.dianping.com/quanzhou/ch10/g34041r25353'
p1211
aS'http://www.dianping.com/quanzhou/ch10/g34240r27801'
p1212
aS'http://www.dianping.com/quanzhou/ch10/g34240r27800'
p1213
aS'http://www.dianping.com/quanzhou/ch10/g34240r27803'
p1214
aS'http://www.dianping.com/quanzhou/ch10/g34240r27802'
p1215
aS'http://www.dianping.com/quanzhou/ch10/g1797r25355'
p1216
aS'http://www.dianping.com/quanzhou/ch10/g203r30376'
p1217
aS'http://www.dianping.com/quanzhou/ch10/g4481r13318'
p1218
aS'http://www.dianping.com/quanzhou/ch10/g34256r36353'
p1219
aS'http://www.dianping.com/quanzhou/ch10/g34245r65743'
p1220
aS'http://www.dianping.com/quanzhou/ch10/g34061r25355'
p1221
aS'http://www.dianping.com/quanzhou/ch10/g4469r36353'
p1222
aS'http://www.dianping.com/quanzhou/ch10/g4467r4141'
p1223
aS'http://www.dianping.com/quanzhou/ch10/g34240r4141'
p1224
aS'http://www.dianping.com/quanzhou/ch10/g34240r4142'
p1225
aS'http://www.dianping.com/quanzhou/ch10/g34240r4143'
p1226
aS'http://www.dianping.com/quanzhou/ch10/g34240r4144'
p1227
aS'http://www.dianping.com/quanzhou/ch10/g34240r4145'
p1228
aS'http://www.dianping.com/quanzhou/ch10/g34240r4146'
p1229
aS'http://www.dianping.com/quanzhou/ch10/g241r13312'
p1230
aS'http://www.dianping.com/quanzhou/ch10/g34257r88389'
p1231
aS'http://www.dianping.com/quanzhou/ch10/g247r25355'
p1232
aS'http://www.dianping.com/quanzhou/ch10/g34241r13317'
p1233
aS'http://www.dianping.com/quanzhou/ch10/g3023r13308'
p1234
aS'http://www.dianping.com/quanzhou/ch10/g3023r13305'
p1235
aS'http://www.dianping.com/quanzhou/ch10/g3023r13304'
p1236
aS'http://www.dianping.com/quanzhou/ch10/g3023r13306'
p1237
aS'http://www.dianping.com/quanzhou/ch10/g34246r30453'
p1238
aS'http://www.dianping.com/quanzhou/ch10/g34241r4145'
p1239
aS'http://www.dianping.com/quanzhou/ch10/g34060r27801'
p1240
aS'http://www.dianping.com/quanzhou/ch10/g34060r27800'
p1241
aS'http://www.dianping.com/quanzhou/ch10/g34060r27803'
p1242
aS'http://www.dianping.com/quanzhou/ch10/g34060r27802'
p1243
aS'http://www.dianping.com/quanzhou/ch10/g2887r4141'
p1244
aS'http://www.dianping.com/quanzhou/ch10/g34061r88408'
p1245
aS'http://www.dianping.com/quanzhou/ch10/g34240r13323'
p1246
aS'http://www.dianping.com/quanzhou/ch10/g34240r13322'
p1247
aS'http://www.dianping.com/quanzhou/ch10/g34040r13312'
p1248
aS'http://www.dianping.com/quanzhou/ch10/g34040r13314'
p1249
aS'http://www.dianping.com/quanzhou/ch10/g34240r13326'
p1250
aS'http://www.dianping.com/quanzhou/ch10/g34240r13324'
p1251
aS'http://www.dianping.com/quanzhou/ch10/g34063r13317'
p1252
aS'http://www.dianping.com/quanzhou/ch10/g34041r4144'
p1253
aS'http://www.dianping.com/quanzhou/ch10/g34041r4146'
p1254
aS'http://www.dianping.com/quanzhou/ch10/g34041r4141'
p1255
aS'http://www.dianping.com/quanzhou/ch10/g34041r4142'
p1256
aS'http://www.dianping.com/quanzhou/ch10/g34041r30453'
p1257
aS'http://www.dianping.com/quanzhou/ch10/g32733r36375'
p1258
aS'http://www.dianping.com/quanzhou/ch10/g250r46390'
p1259
aS'http://www.dianping.com/quanzhou/ch10/g34256r4144'
p1260
aS'http://www.dianping.com/quanzhou/ch10/g34256r4143'
p1261
aS'http://www.dianping.com/quanzhou/ch10/g34256r4142'
p1262
aS'http://www.dianping.com/quanzhou/ch10/g34256r4141'
p1263
aS'http://www.dianping.com/quanzhou/ch10/g4481r13313'
p1264
aS'http://www.dianping.com/quanzhou/ch10/g27823r4145'
p1265
aS'http://www.dianping.com/quanzhou/ch10/g34257r88391'
p1266
aS'http://www.dianping.com/quanzhou/ch10/g4481r13317'
p1267
aS'http://www.dianping.com/quanzhou/ch10/g4481r13314'
p1268
aS'http://www.dianping.com/quanzhou/ch10/g34257r4141'
p1269
aS'http://www.dianping.com/quanzhou/ch10/g4481r13319'
p1270
aS'http://www.dianping.com/quanzhou/ch10/g3233r13314'
p1271
aS'http://www.dianping.com/quanzhou/ch10/g34257r4144'
p1272
aS'http://www.dianping.com/quanzhou/ch10/g34257r4145'
p1273
aS'http://www.dianping.com/quanzhou/ch10/g34257r4146'
p1274
aS'http://www.dianping.com/quanzhou/ch10/g34246r13321'
p1275
aS'http://www.dianping.com/quanzhou/ch10/g34246r13320'
p1276
aS'http://www.dianping.com/quanzhou/ch10/g34246r13323'
p1277
aS'http://www.dianping.com/quanzhou/ch10/g34246r13322'
p1278
aS'http://www.dianping.com/quanzhou/ch10/g34246r13324'
p1279
aS'http://www.dianping.com/quanzhou/ch10/g34246r13326'
p1280
aS'http://www.dianping.com/quanzhou/ch10/g3017r89427'
p1281
aS'http://www.dianping.com/quanzhou/ch10/g248r25348'
p1282
aS'http://www.dianping.com/quanzhou/ch10/g248r25347'
p1283
aS'http://www.dianping.com/quanzhou/ch10/g4273r30376'
p1284
aS'http://www.dianping.com/quanzhou/ch10/g34243r36367'
p1285
aS'http://www.dianping.com/quanzhou/ch10/g34257r64615'
p1286
aS'http://www.dianping.com/quanzhou/ch10/g4469r24520'
p1287
aS'http://www.dianping.com/quanzhou/ch10/g1785r13322'
p1288
aS'http://www.dianping.com/quanzhou/ch10/g33916r64615'
p1289
aS'http://www.dianping.com/quanzhou/ch10/g4469r24523'
p1290
aS'http://www.dianping.com/quanzhou/ch10/g4447r13319'
p1291
aS'http://www.dianping.com/quanzhou/ch10/g1785r13321'
p1292
aS'http://www.dianping.com/quanzhou/ch10/g4447r13318'
p1293
aS'http://www.dianping.com/quanzhou/ch10/g1785r13326'
p1294
aS'http://www.dianping.com/quanzhou/ch10/g3017r30366'
p1295
aS'http://www.dianping.com/quanzhou/ch10/g105r36375'
p1296
aS'http://www.dianping.com/quanzhou/ch10/g241r25347'
p1297
aS'http://www.dianping.com/quanzhou/ch10/g241r25348'
p1298
aS'http://www.dianping.com/quanzhou/ch10/g34240r28023'
p1299
aS'http://www.dianping.com/quanzhou/ch10/g34041r64615'
p1300
aS'http://www.dianping.com/quanzhou/ch10/g34245r13317'
p1301
aS'http://www.dianping.com/quanzhou/ch10/g34245r13316'
p1302
aS'http://www.dianping.com/quanzhou/ch10/g34245r13315'
p1303
aS'http://www.dianping.com/quanzhou/ch10/g34245r13314'
p1304
aS'http://www.dianping.com/quanzhou/ch10/g34245r13313'
p1305
aS'http://www.dianping.com/quanzhou/ch10/g34245r13312'
p1306
aS'http://www.dianping.com/quanzhou/ch10/g34245r13311'
p1307
aS'http://www.dianping.com/quanzhou/ch10/g34245r13310'
p1308
aS'http://www.dianping.com/quanzhou/ch10/g34245r88392'
p1309
aS'http://www.dianping.com/quanzhou/ch10/g34245r13319'
p1310
aS'http://www.dianping.com/quanzhou/ch10/g34245r13318'
p1311
aS'http://www.dianping.com/quanzhou/ch10/g32713r25350'
p1312
aS'http://www.dianping.com/quanzhou/ch10/g225r86537'
p1313
aS'http://www.dianping.com/quanzhou/ch10/g252r27220'
p1314
aS'http://www.dianping.com/quanzhou/ch10/g252r89506'
p1315
aS'http://www.dianping.com/quanzhou/ch10/g4473r30376'
p1316
aS'http://www.dianping.com/quanzhou/ch10/g34243r86537'
p1317
aS'http://www.dianping.com/quanzhou/ch10/g247r30376'
p1318
aS'http://www.dianping.com/quanzhou/ch10/g34243r86538'
p1319
aS'http://www.dianping.com/quanzhou/ch10/g32713r4141'
p1320
aS'http://www.dianping.com/quanzhou/ch10/g250r13304'
p1321
aS'http://www.dianping.com/quanzhou/ch10/g34245r30366'
p1322
aS'http://www.dianping.com/quanzhou/ch10/g34065r13306'
p1323
aS'http://www.dianping.com/quanzhou/ch10/g34065r13307'
p1324
aS'http://www.dianping.com/quanzhou/ch10/g4469r25347'
p1325
aS'http://www.dianping.com/quanzhou/ch10/g34237r25360'
p1326
aS'http://www.dianping.com/quanzhou/ch10/g4469r25348'
p1327
aS'http://www.dianping.com/quanzhou/ch10/g34065r13308'
p1328
aS'http://www.dianping.com/quanzhou/ch10/g32731r28023'
p1329
aS'http://www.dianping.com/quanzhou/ch10/g241r27801'
p1330
aS'http://www.dianping.com/quanzhou/ch10/g241r27800'
p1331
aS'http://www.dianping.com/quanzhou/ch10/g241r27802'
p1332
aS'http://www.dianping.com/quanzhou/ch10/g34040r4143'
p1333
aS'http://www.dianping.com/quanzhou/ch10/g32730r36375'
p1334
aS'http://www.dianping.com/quanzhou/ch10/g34040r4141'
p1335
aS'http://www.dianping.com/quanzhou/ch10/g34244r88402'
p1336
aS'http://www.dianping.com/quanzhou/ch10/g2887r25347'
p1337
aS'http://www.dianping.com/quanzhou/ch10/g252r86528'
p1338
aS'http://www.dianping.com/quanzhou/ch10/g226r30376'
p1339
aS'http://www.dianping.com/quanzhou/ch10/g34060r30453'
p1340
aS'http://www.dianping.com/quanzhou/ch10/g4581r4144'
p1341
aS'http://www.dianping.com/quanzhou/ch10/g34257r65742'
p1342
aS'http://www.dianping.com/quanzhou/ch10/g34257r65743'
p1343
aS'http://www.dianping.com/quanzhou/ch10/g34060r89427'
p1344
aS'http://www.dianping.com/quanzhou/ch10/g4583r86537'
p1345
aS'http://www.dianping.com/quanzhou/ch10/g34243r13306'
p1346
aS'http://www.dianping.com/quanzhou/ch10/g34243r13304'
p1347
aS'http://www.dianping.com/quanzhou/ch10/g3017r36353'
p1348
aS'http://www.dianping.com/quanzhou/ch10/g34241r4141'
p1349
aS'http://www.dianping.com/quanzhou/ch10/g33924r88389'
p1350
aS'http://www.dianping.com/quanzhou/ch10/g33924r88408'
p1351
aS'http://www.dianping.com/quanzhou/ch10/g33924r88402'
p1352
aS'http://www.dianping.com/quanzhou/ch10/g208r13326'
p1353
aS'http://www.dianping.com/quanzhou/ch10/g34237r28023'
p1354
aS'http://www.dianping.com/quanzhou/ch10/g34245r88391'
p1355
aS'http://www.dianping.com/quanzhou/ch10/g208r13321'
p1356
aS'http://www.dianping.com/quanzhou/ch10/g34246r25355'
p1357
aS'http://www.dianping.com/quanzhou/ch10/g34225r27220'
p1358
aS'http://www.dianping.com/quanzhou/ch10/g34246r25356'
p1359
aS'http://www.dianping.com/quanzhou/ch10/g34246r25350'
p1360
aS'http://www.dianping.com/quanzhou/ch10/g34246r25353'
p1361
aS'http://www.dianping.com/quanzhou/ch10/g34240r86542'
p1362
aS'http://www.dianping.com/quanzhou/ch10/g34240r86546'
p1363
aS'http://www.dianping.com/quanzhou/ch10/g4447r36375'
p1364
aS'http://www.dianping.com/quanzhou/ch10/g252r30376'
p1365
aS'http://www.dianping.com/quanzhou/ch10/g34279r13314'
p1366
aS'http://www.dianping.com/quanzhou/ch10/g34041r25348'
p1367
aS'http://www.dianping.com/quanzhou/ch10/g34279r13313'
p1368
aS'http://www.dianping.com/quanzhou/ch10/g34237r30453'
p1369
aS'http://www.dianping.com/quanzhou/ch10/g34041r25347'
p1370
aS'http://www.dianping.com/quanzhou/ch10/g1797r30453'
p1371
aS'http://www.dianping.com/quanzhou/ch10/g34279r13319'
p1372
aS'http://www.dianping.com/quanzhou/ch10/g1797r25348'
p1373
aS'http://www.dianping.com/quanzhou/ch10/g4467r13310'
p1374
aS'http://www.dianping.com/quanzhou/ch10/g250r4141'
p1375
aS'http://www.dianping.com/quanzhou/ch10/g32733r4146'
p1376
aS'http://www.dianping.com/quanzhou/ch10/g32733r4144'
p1377
aS'http://www.dianping.com/quanzhou/ch10/g32733r4143'
p1378
aS'http://www.dianping.com/quanzhou/ch10/g32733r4142'
p1379
aS'http://www.dianping.com/quanzhou/ch10/g32733r4141'
p1380
aS'http://www.dianping.com/quanzhou/ch10/g4467r13316'
p1381
aS'http://www.dianping.com/quanzhou/ch10/g4467r13315'
p1382
aS'http://www.dianping.com/quanzhou/ch10/g34278r65746'
p1383
aS'http://www.dianping.com/quanzhou/ch10/g4467r13314'
p1384
aS'http://www.dianping.com/quanzhou/ch10/g34061r25347'
p1385
aS'http://www.dianping.com/quanzhou/ch10/g227r13312'
p1386
aS'http://www.dianping.com/quanzhou/ch10/g1338r13323'
p1387
aS'http://www.dianping.com/quanzhou/ch10/g1338r13320'
p1388
aS'http://www.dianping.com/quanzhou/ch10/g4447r24523'
p1389
aS'http://www.dianping.com/quanzhou/ch10/g1338r13326'
p1390
aS'http://www.dianping.com/quanzhou/ch10/g1338r13324'
p1391
aS'http://www.dianping.com/quanzhou/ch10/g34240r25347'
p1392
aS'http://www.dianping.com/quanzhou/ch10/g34040r30376'
p1393
aS'http://www.dianping.com/quanzhou/ch10/g34240r25348'
p1394
aS'http://www.dianping.com/quanzhou/ch10/g34245r36375'
p1395
aS'http://www.dianping.com/quanzhou/ch10/g33951r13320'
p1396
aS'http://www.dianping.com/quanzhou/ch10/g32713r30453'
p1397
aS'http://www.dianping.com/quanzhou/ch10/g248r86538'
p1398
aS'http://www.dianping.com/quanzhou/ch10/g4473r27803'
p1399
aS'http://www.dianping.com/quanzhou/ch10/g3023r13319'
p1400
aS'http://www.dianping.com/quanzhou/ch10/g3023r13316'
p1401
aS'http://www.dianping.com/quanzhou/ch10/g3023r13317'
p1402
aS'http://www.dianping.com/quanzhou/ch10/g3023r13314'
p1403
aS'http://www.dianping.com/quanzhou/ch10/g3023r13315'
p1404
aS'http://www.dianping.com/quanzhou/ch10/g3023r13312'
p1405
aS'http://www.dianping.com/quanzhou/ch10/g32726r25355'
p1406
aS'http://www.dianping.com/quanzhou/ch10/g3023r13310'
p1407
aS'http://www.dianping.com/quanzhou/ch10/g3023r13311'
p1408
aS'http://www.dianping.com/quanzhou/ch10/g1785r25347'
p1409
aS'http://www.dianping.com/quanzhou/ch10/g4473r27800'
p1410
aS'http://www.dianping.com/quanzhou/ch10/g32731r36375'
p1411
aS'http://www.dianping.com/quanzhou/ch10/g34246r89506'
p1412
aS'http://www.dianping.com/quanzhou/ch10/g1453r27802'
p1413
aS'http://www.dianping.com/quanzhou/ch10/g34040r13305'
p1414
aS'http://www.dianping.com/quanzhou/ch10/g32731r13306'
p1415
aS'http://www.dianping.com/quanzhou/ch10/g4447r36353'
p1416
aS'http://www.dianping.com/quanzhou/ch10/g34243r27802'
p1417
aS'http://www.dianping.com/quanzhou/ch10/g34243r27803'
p1418
aS'http://www.dianping.com/quanzhou/ch10/g34243r27800'
p1419
aS'http://www.dianping.com/quanzhou/ch10/g227r4141'
p1420
aS'http://www.dianping.com/quanzhou/ch10/g33924r4141'
p1421
aS'http://www.dianping.com/quanzhou/ch10/g33924r4142'
p1422
aS'http://www.dianping.com/quanzhou/ch10/g33924r4143'
p1423
aS'http://www.dianping.com/quanzhou/ch10/g33924r4144'
p1424
aS'http://www.dianping.com/quanzhou/ch10/g33924r4145'
p1425
aS'http://www.dianping.com/quanzhou/ch10/g33924r4146'
p1426
aS'http://www.dianping.com/quanzhou/ch10/g34245r28023'
p1427
aS'http://www.dianping.com/quanzhou/ch10/g34257r13323'
p1428
aS'http://www.dianping.com/quanzhou/ch10/g34257r13322'
p1429
aS'http://www.dianping.com/quanzhou/ch10/g201r25350'
p1430
aS'http://www.dianping.com/quanzhou/ch10/g34246r13318'
p1431
aS'http://www.dianping.com/quanzhou/ch10/g34246r13319'
p1432
aS'http://www.dianping.com/quanzhou/ch10/g34257r13324'
p1433
aS'http://www.dianping.com/quanzhou/ch10/g34246r13314'
p1434
aS'http://www.dianping.com/quanzhou/ch10/g34246r13315'
p1435
aS'http://www.dianping.com/quanzhou/ch10/g34246r13316'
p1436
aS'http://www.dianping.com/quanzhou/ch10/g34246r13317'
p1437
aS'http://www.dianping.com/quanzhou/ch10/g34246r13311'
p1438
aS'http://www.dianping.com/quanzhou/ch10/g34246r13312'
p1439
aS'http://www.dianping.com/quanzhou/ch10/g34246r13313'
p1440
aS'http://www.dianping.com/quanzhou/ch10/g34243r36353'
p1441
aS'http://www.dianping.com/quanzhou/ch10/g3027r13305'
p1442
aS'http://www.dianping.com/quanzhou/ch10/g3027r13306'
p1443
aS'http://www.dianping.com/quanzhou/ch10/g3027r13308'
p1444
aS'http://www.dianping.com/quanzhou/ch10/g4583r28425'
p1445
aS'http://www.dianping.com/quanzhou/ch10/g34244r4145'
p1446
aS'http://www.dianping.com/quanzhou/ch10/g34244r4146'
p1447
aS'http://www.dianping.com/quanzhou/ch10/g34244r4141'
p1448
aS'http://www.dianping.com/quanzhou/ch10/g34244r4142'
p1449
aS'http://www.dianping.com/quanzhou/ch10/g34244r4143'
p1450
aS'http://www.dianping.com/quanzhou/ch10/g1785r30453'
p1451
aS'http://www.dianping.com/quanzhou/ch10/g4467r28423'
p1452
aS'http://www.dianping.com/quanzhou/ch10/g201r28424'
p1453
aS'http://www.dianping.com/quanzhou/ch10/g3017r30376'
p1454
aS'http://www.dianping.com/quanzhou/ch10/g203r13324'
p1455
aS'http://www.dianping.com/quanzhou/ch10/g241r25356'
p1456
aS'http://www.dianping.com/quanzhou/ch10/g241r25355'
p1457
aS'http://www.dianping.com/quanzhou/ch10/g241r25353'
p1458
aS'http://www.dianping.com/quanzhou/ch10/g4467r86546'
p1459
aS'http://www.dianping.com/quanzhou/ch10/g241r25350'
p1460
aS'http://www.dianping.com/quanzhou/ch10/g4449r88408'
p1461
aS'http://www.dianping.com/quanzhou/ch10/g27823r13326'
p1462
aS'http://www.dianping.com/quanzhou/ch10/g4449r25347'
p1463
aS'http://www.dianping.com/quanzhou/ch10/g3233r88402'
p1464
aS'http://www.dianping.com/quanzhou/ch10/g4449r25348'
p1465
aS'http://www.dianping.com/quanzhou/ch10/g252r30453'
p1466
aS'http://www.dianping.com/quanzhou/ch10/g4473r25351'
p1467
aS'http://www.dianping.com/quanzhou/ch10/g4473r25350'
p1468
aS'http://www.dianping.com/quanzhou/ch10/g4473r25353'
p1469
aS'http://www.dianping.com/quanzhou/ch10/g4473r25355'
p1470
aS'http://www.dianping.com/quanzhou/ch10/g4473r25356'
p1471
aS'http://www.dianping.com/quanzhou/ch10/g247r25356'
p1472
aS'http://www.dianping.com/quanzhou/ch10/g4469r88402'
p1473
aS'http://www.dianping.com/quanzhou/ch10/g1805r13316'
p1474
aS'http://www.dianping.com/quanzhou/ch10/g27823r28423'
p1475
aS'http://www.dianping.com/quanzhou/ch10/g27823r28425'
p1476
aS'http://www.dianping.com/quanzhou/ch10/g27823r28424'
p1477
aS'http://www.dianping.com/quanzhou/ch10/g4473r30366'
p1478
aS'http://www.dianping.com/quanzhou/ch10/g33951r27802'
p1479
aS'http://www.dianping.com/quanzhou/ch10/g34241r30453'
p1480
aS'http://www.dianping.com/quanzhou/ch10/g4601r13314'
p1481
aS'http://www.dianping.com/quanzhou/ch10/g1338r64615'
p1482
aS'http://www.dianping.com/quanzhou/ch10/g34240r88402'
p1483
aS'http://www.dianping.com/quanzhou/ch10/g4467r25356'
p1484
aS'http://www.dianping.com/quanzhou/ch10/g34243r30357'
p1485
aS'http://www.dianping.com/quanzhou/ch10/g1338r46405'
p1486
aS'http://www.dianping.com/quanzhou/ch10/g34040r27803'
p1487
aS'http://www.dianping.com/quanzhou/ch10/g34245r30357'
p1488
aS'http://www.dianping.com/quanzhou/ch10/g4469r25355'
p1489
aS'http://www.dianping.com/quanzhou/ch10/g34065r13319'
p1490
aS'http://www.dianping.com/quanzhou/ch10/g4477r28424'
p1491
aS'http://www.dianping.com/quanzhou/ch10/g4477r28425'
p1492
aS'http://www.dianping.com/quanzhou/ch10/g4477r28426'
p1493
aS'http://www.dianping.com/quanzhou/ch10/g3023r27802'
p1494
aS'http://www.dianping.com/quanzhou/ch10/g34065r13312'
p1495
aS'http://www.dianping.com/quanzhou/ch10/g4481r36375'
p1496
aS'http://www.dianping.com/quanzhou/ch10/g34065r13315'
p1497
aS'http://www.dianping.com/quanzhou/ch10/g1805r4144'
p1498
aS'http://www.dianping.com/quanzhou/ch10/g4601r27802'
p1499
aS'http://www.dianping.com/quanzhou/ch10/g2887r25355'
p1500
aS'http://www.dianping.com/quanzhou/ch10/g4449r30453'
p1501
aS'http://www.dianping.com/quanzhou/ch10/g34061r30453'
p1502
aS'http://www.dianping.com/quanzhou/ch10/g4467r30453'
p1503
aS'http://www.dianping.com/quanzhou/ch10/g34257r86538'
p1504
aS'http://www.dianping.com/quanzhou/ch10/g4467r24520'
p1505
aS'http://www.dianping.com/quanzhou/ch10/g34257r86537'
p1506
aS'http://www.dianping.com/quanzhou/ch10/g250r86528'
p1507
aS'http://www.dianping.com/quanzhou/ch10/g4449r13323'
p1508
aS'http://www.dianping.com/quanzhou/ch10/g34277r28425'
p1509
aS'http://www.dianping.com/quanzhou/ch10/g4583r30453'
p1510
aS'http://www.dianping.com/quanzhou/ch10/g4467r13326'
p1511
aS'http://www.dianping.com/quanzhou/ch10/g4467r13324'
p1512
aS'http://www.dianping.com/quanzhou/ch10/g1338r88408'
p1513
aS'http://www.dianping.com/quanzhou/ch10/g4467r13322'
p1514
aS'http://www.dianping.com/quanzhou/ch10/g34065r88389'
p1515
aS'http://www.dianping.com/quanzhou/ch10/g4467r13320'
p1516
aS'http://www.dianping.com/quanzhou/ch10/g4467r13321'
p1517
aS'http://www.dianping.com/quanzhou/ch10/g1338r88402'
p1518
aS'http://www.dianping.com/quanzhou/ch10/g1338r88392'
p1519
aS'http://www.dianping.com/quanzhou/ch10/g1338r88391'
p1520
aS'http://www.dianping.com/quanzhou/ch10/g252r13307'
p1521
aS'http://www.dianping.com/quanzhou/ch10/g3017r13323'
p1522
aS'http://www.dianping.com/quanzhou/ch10/g34061r13326'
p1523
aS'http://www.dianping.com/quanzhou/ch10/g227r13322'
p1524
aS'http://www.dianping.com/quanzhou/ch10/g34061r13324'
p1525
aS'http://www.dianping.com/quanzhou/ch10/g3017r13320'
p1526
aS'http://www.dianping.com/quanzhou/ch10/g34061r13321'
p1527
aS'http://www.dianping.com/quanzhou/ch10/g33924r28423'
p1528
aS'http://www.dianping.com/quanzhou/ch10/g33924r28426'
p1529
aS'http://www.dianping.com/quanzhou/ch10/g33924r28424'
p1530
aS'http://www.dianping.com/quanzhou/ch10/g33924r28425'
p1531
aS'http://www.dianping.com/quanzhou/ch10/g34060r13316'
p1532
aS'http://www.dianping.com/quanzhou/ch10/g4593r30453'
p1533
aS'http://www.dianping.com/quanzhou/ch10/g32733r89506'
p1534
aS'http://www.dianping.com/quanzhou/ch10/g34060r13312'
p1535
aS'http://www.dianping.com/quanzhou/ch10/g34060r13313'
p1536
aS'http://www.dianping.com/quanzhou/ch10/g34060r13310'
p1537
aS'http://www.dianping.com/quanzhou/ch10/g34060r13311'
p1538
aS'http://www.dianping.com/quanzhou/ch10/g4467r25348'
p1539
aS'http://www.dianping.com/quanzhou/ch10/g250r25348'
p1540
aS'http://www.dianping.com/quanzhou/ch10/g226r64615'
p1541
aS'http://www.dianping.com/quanzhou/ch10/g4477r36375'
p1542
aS'http://www.dianping.com/quanzhou/ch10/g4447r86538'
p1543
aS'http://www.dianping.com/quanzhou/ch10/g4467r25347'
p1544
aS'http://www.dianping.com/quanzhou/ch10/g1338r13319'
p1545
aS'http://www.dianping.com/quanzhou/ch10/g1338r13318'
p1546
aS'http://www.dianping.com/quanzhou/ch10/g1338r13317'
p1547
aS'http://www.dianping.com/quanzhou/ch10/g1338r13316'
p1548
aS'http://www.dianping.com/quanzhou/ch10/g1338r13315'
p1549
aS'http://www.dianping.com/quanzhou/ch10/g1338r13314'
p1550
aS'http://www.dianping.com/quanzhou/ch10/g1338r13312'
p1551
aS'http://www.dianping.com/quanzhou/ch10/g1338r13311'
p1552
aS'http://www.dianping.com/quanzhou/ch10/g32731r86542'
p1553
aS'http://www.dianping.com/quanzhou/ch10/g1785r4142'
p1554
aS'http://www.dianping.com/quanzhou/ch10/g1785r4141'
p1555
aS'http://www.dianping.com/quanzhou/ch10/g32731r86546'
p1556
aS'http://www.dianping.com/quanzhou/ch10/g1785r4146'
p1557
aS'http://www.dianping.com/quanzhou/ch10/g1785r4145'
p1558
aS'http://www.dianping.com/quanzhou/ch10/g1785r4144'
p1559
aS'http://www.dianping.com/quanzhou/ch10/g34240r25353'
p1560
aS'http://www.dianping.com/quanzhou/ch10/g34240r25350'
p1561
aS'http://www.dianping.com/quanzhou/ch10/g34240r25355'
p1562
aS'http://www.dianping.com/quanzhou/ch10/g34245r36362'
p1563
aS'http://www.dianping.com/quanzhou/ch10/g34278r30376'
p1564
aS'http://www.dianping.com/quanzhou/ch10/g34060r27220'
p1565
aS'http://www.dianping.com/quanzhou/ch10/g27823r4144'
p1566
aS'http://www.dianping.com/quanzhou/ch10/g3017r24523'
p1567
aS'http://www.dianping.com/quanzhou/ch10/g34224r24520'
p1568
aS'http://www.dianping.com/quanzhou/ch10/g34246r24520'
p1569
aS'http://www.dianping.com/quanzhou/ch10/g33950r13306'
p1570
aS'http://www.dianping.com/quanzhou/ch10/g32726r25348'
p1571
aS'http://www.dianping.com/quanzhou/ch10/g3023r13323'
p1572
aS'http://www.dianping.com/quanzhou/ch10/g3023r13322'
p1573
aS'http://www.dianping.com/quanzhou/ch10/g3023r13321'
p1574
aS'http://www.dianping.com/quanzhou/ch10/g3023r13320'
p1575
aS'http://www.dianping.com/quanzhou/ch10/g3023r13326'
p1576
aS'http://www.dianping.com/quanzhou/ch10/g1785r25350'
p1577
aS'http://www.dianping.com/quanzhou/ch10/g3023r13324'
p1578
aS'http://www.dianping.com/quanzhou/ch10/g34245r25353'
p1579
aS'http://www.dianping.com/quanzhou/ch10/g34245r25350'
p1580
aS'http://www.dianping.com/quanzhou/ch10/g34245r25351'
p1581
aS'http://www.dianping.com/quanzhou/ch10/g34245r25356'
p1582
aS'http://www.dianping.com/quanzhou/ch10/g34245r25357'
p1583
aS'http://www.dianping.com/quanzhou/ch10/g34245r25355'
p1584
aS'http://www.dianping.com/quanzhou/ch10/g33950r86538'
p1585
aS'http://www.dianping.com/quanzhou/ch10/g208r25355'
p1586
aS'http://www.dianping.com/quanzhou/ch10/g208r25353'
p1587
aS'http://www.dianping.com/quanzhou/ch10/g33924r86546'
p1588
aS'http://www.dianping.com/quanzhou/ch10/g4447r30357'
p1589
aS'http://www.dianping.com/quanzhou/ch10/g34257r25348'
p1590
aS'http://www.dianping.com/quanzhou/ch10/g32730r4142'
p1591
aS'http://www.dianping.com/quanzhou/ch10/g34257r25347'
p1592
aS'http://www.dianping.com/quanzhou/ch10/g34278r25351'
p1593
aS'http://www.dianping.com/quanzhou/ch10/g34246r13307'
p1594
aS'http://www.dianping.com/quanzhou/ch10/g34246r13306'
p1595
aS'http://www.dianping.com/quanzhou/ch10/g34246r13305'
p1596
aS'http://www.dianping.com/quanzhou/ch10/g34278r25355'
p1597
aS'http://www.dianping.com/quanzhou/ch10/g3027r24523'
p1598
aS'http://www.dianping.com/quanzhou/ch10/g34246r13309'
p1599
aS'http://www.dianping.com/quanzhou/ch10/g3027r24520'
p1600
aS'http://www.dianping.com/quanzhou/ch10/g3027r13312'
p1601
aS'http://www.dianping.com/quanzhou/ch10/g3027r13313'
p1602
aS'http://www.dianping.com/quanzhou/ch10/g3027r13317'
p1603
aS'http://www.dianping.com/quanzhou/ch10/g3027r13314'
p1604
aS'http://www.dianping.com/quanzhou/ch10/g3027r13315'
p1605
aS'http://www.dianping.com/quanzhou/ch10/g3027r13318'
p1606
aS'http://www.dianping.com/quanzhou/ch10/g3027r13319'
p1607
aS'http://www.dianping.com/quanzhou/ch10/g34245r88402'
p1608
aS'http://www.dianping.com/quanzhou/ch10/g225r13304'
p1609
aS'http://www.dianping.com/quanzhou/ch10/g34244r25347'
p1610
aS'http://www.dianping.com/quanzhou/ch10/g27823r30366'
p1611
aS'http://www.dianping.com/quanzhou/ch10/g34238r4141'
p1612
aS'http://www.dianping.com/quanzhou/ch10/g3027r36375'
p1613
aS'http://www.dianping.com/quanzhou/ch10/g201r4144'
p1614
aS'http://www.dianping.com/quanzhou/ch10/g4449r25356'
p1615
aS'http://www.dianping.com/quanzhou/ch10/g4449r25355'
p1616
aS'http://www.dianping.com/quanzhou/ch10/g4449r25353'
p1617
aS'http://www.dianping.com/quanzhou/ch10/g4449r25350'
p1618
aS'http://www.dianping.com/quanzhou/ch10/g4449r25351'
p1619
aS'http://www.dianping.com/quanzhou/ch10/g34225r25350'
p1620
aS'http://www.dianping.com/quanzhou/ch10/g34225r25353'
p1621
aS'http://www.dianping.com/quanzhou/ch10/g4473r25347'
p1622
aS'http://www.dianping.com/quanzhou/ch10/g34243r46347'
p1623
aS'http://www.dianping.com/quanzhou/ch10/g34240r27220'
p1624
aS'http://www.dianping.com/quanzhou/ch10/g4473r25348'
p1625
aS'http://www.dianping.com/quanzhou/ch10/g250r28423'
p1626
aS'http://www.dianping.com/quanzhou/ch10/g224r30376'
p1627
aS'http://www.dianping.com/quanzhou/ch10/g4467r46343'
p1628
aS'http://www.dianping.com/quanzhou/ch10/g250r64615'
p1629
aS'http://www.dianping.com/quanzhou/ch10/g208r30453'
p1630
aS'http://www.dianping.com/quanzhou/ch10/g1338r86538'
p1631
aS'http://www.dianping.com/quanzhou/ch10/g224r86542'
p1632
aS'http://www.dianping.com/quanzhou/ch10/g3017r28023'
p1633
aS'http://www.dianping.com/quanzhou/ch10/g33950r24523'
p1634
aS'http://www.dianping.com/quanzhou/ch10/g33950r24520'
p1635
aS'http://www.dianping.com/quanzhou/ch10/g34060r88391'
p1636
aS'http://www.dianping.com/quanzhou/ch10/g32733r13322'
p1637
aS'http://www.dianping.com/quanzhou/ch10/g32733r13323'
p1638
aS'http://www.dianping.com/quanzhou/ch10/g32733r13320'
p1639
aS'http://www.dianping.com/quanzhou/ch10/g32733r13321'
p1640
aS'http://www.dianping.com/quanzhou/ch10/g32733r13326'
p1641
aS'http://www.dianping.com/quanzhou/ch10/g32733r13324'
p1642
aS'http://www.dianping.com/quanzhou/ch10/g33950r46382'
p1643
aS'http://www.dianping.com/quanzhou/ch10/g241r30453'
p1644
aS'http://www.dianping.com/quanzhou/ch10/g3023r88392'
p1645
aS'http://www.dianping.com/quanzhou/ch10/g3023r88391'
p1646
aS'http://www.dianping.com/quanzhou/ch10/g4473r88389'
p1647
aS'http://www.dianping.com/quanzhou/ch10/g32723r28424'
p1648
aS'http://www.dianping.com/quanzhou/ch10/g32723r28425'
p1649
aS'http://www.dianping.com/quanzhou/ch10/g34256r13323'
p1650
aS'http://www.dianping.com/quanzhou/ch10/g34065r25348'
p1651
aS'http://www.dianping.com/quanzhou/ch10/g4447r13311'
p1652
aS'http://www.dianping.com/quanzhou/ch10/g4447r13310'
p1653
aS'http://www.dianping.com/quanzhou/ch10/g4447r13313'
p1654
aS'http://www.dianping.com/quanzhou/ch10/g4447r13312'
p1655
aS'http://www.dianping.com/quanzhou/ch10/g4447r13315'
p1656
aS'http://www.dianping.com/quanzhou/ch10/g4447r13314'
p1657
aS'http://www.dianping.com/quanzhou/ch10/g4447r13317'
p1658
aS'http://www.dianping.com/quanzhou/ch10/g4447r13316'
p1659
aS'http://www.dianping.com/quanzhou/ch10/g34278r4143'
p1660
aS'http://www.dianping.com/quanzhou/ch10/g34278r4142'
p1661
aS'http://www.dianping.com/quanzhou/ch10/g34278r4141'
p1662
aS'http://www.dianping.com/quanzhou/ch10/g33950r30453'
p1663
aS'http://www.dianping.com/quanzhou/ch10/g34278r4146'
p1664
aS'http://www.dianping.com/quanzhou/ch10/g34278r4144'
p1665
aS'http://www.dianping.com/quanzhou/ch10/g26482r4143'
p1666
aS'http://www.dianping.com/quanzhou/ch10/g208r65746'
p1667
aS'http://www.dianping.com/quanzhou/ch10/g34257r86528'
p1668
aS'http://www.dianping.com/quanzhou/ch10/g34065r25347'
p1669
aS'http://www.dianping.com/quanzhou/ch10/g3017r36375'
p1670
aS'http://www.dianping.com/quanzhou/ch10/g34243r13308'
p1671
aS'http://www.dianping.com/quanzhou/ch10/g34243r13309'
p1672
aS'http://www.dianping.com/quanzhou/ch10/g4593r27800'
p1673
aS'http://www.dianping.com/quanzhou/ch10/g34243r13307'
p1674
aS'http://www.dianping.com/quanzhou/ch10/g4593r27802'
p1675
aS'http://www.dianping.com/quanzhou/ch10/g34243r13305'
p1676
aS'http://www.dianping.com/quanzhou/ch10/g252r24523'
p1677
aS'http://www.dianping.com/quanzhou/ch10/g4467r13319'
p1678
aS'http://www.dianping.com/quanzhou/ch10/g4467r13318'
p1679
aS'http://www.dianping.com/quanzhou/ch10/g4467r13313'
p1680
aS'http://www.dianping.com/quanzhou/ch10/g4467r13312'
p1681
aS'http://www.dianping.com/quanzhou/ch10/g4467r13311'
p1682
aS'http://www.dianping.com/quanzhou/ch10/g32726r86538'
p1683
aS'http://www.dianping.com/quanzhou/ch10/g4467r13317'
p1684
aS'http://www.dianping.com/quanzhou/ch10/g34237r24520'
p1685
aS'http://www.dianping.com/quanzhou/ch10/g34237r24523'
p1686
aS'http://www.dianping.com/quanzhou/ch10/g4447r4144'
p1687
aS'http://www.dianping.com/quanzhou/ch10/g34063r36375'
p1688
aS'http://www.dianping.com/quanzhou/ch10/g4273r25355'
p1689
aS'http://www.dianping.com/quanzhou/ch10/g2951r46358'
p1690
aS'http://www.dianping.com/quanzhou/ch10/g34238r13314'
p1691
aS'http://www.dianping.com/quanzhou/ch10/g32723r4146'
p1692
aS'http://www.dianping.com/quanzhou/ch10/g32723r4144'
p1693
aS'http://www.dianping.com/quanzhou/ch10/g32723r4145'
p1694
aS'http://www.dianping.com/quanzhou/ch10/g32723r4142'
p1695
aS'http://www.dianping.com/quanzhou/ch10/g32723r4143'
p1696
aS'http://www.dianping.com/quanzhou/ch10/g253r25347'
p1697
aS'http://www.dianping.com/quanzhou/ch10/g32723r4141'
p1698
aS'http://www.dianping.com/quanzhou/ch10/g34234r4141'
p1699
aS'http://www.dianping.com/quanzhou/ch10/g4473r13324'
p1700
aS'http://www.dianping.com/quanzhou/ch10/g4473r13326'
p1701
aS'http://www.dianping.com/quanzhou/ch10/g208r46382'
p1702
aS'http://www.dianping.com/quanzhou/ch10/g4473r13320'
p1703
aS'http://www.dianping.com/quanzhou/ch10/g4473r13323'
p1704
aS'http://www.dianping.com/quanzhou/ch10/g4473r13322'
p1705
aS'http://www.dianping.com/quanzhou/ch10/g34060r13305'
p1706
aS'http://www.dianping.com/quanzhou/ch10/g34060r13304'
p1707
aS'http://www.dianping.com/quanzhou/ch10/g34060r13306'
p1708
aS'http://www.dianping.com/quanzhou/ch10/g4467r28427'
p1709
aS'http://www.dianping.com/quanzhou/ch10/g4467r28426'
p1710
aS'http://www.dianping.com/quanzhou/ch10/g4467r28425'
p1711
aS'http://www.dianping.com/quanzhou/ch10/g4467r28424'
p1712
aS'http://www.dianping.com/quanzhou/ch10/g34257r36375'
p1713
aS'http://www.dianping.com/quanzhou/ch10/g4467r25359'
p1714
aS'http://www.dianping.com/quanzhou/ch10/g34257r36370'
p1715
aS'http://www.dianping.com/quanzhou/ch10/g4467r25353'
p1716
aS'http://www.dianping.com/quanzhou/ch10/g4467r25350'
p1717
aS'http://www.dianping.com/quanzhou/ch10/g4467r25351'
p1718
aS'http://www.dianping.com/quanzhou/ch10/g4447r86528'
p1719
aS'http://www.dianping.com/quanzhou/ch10/g4467r25355'
p1720
aS'http://www.dianping.com/quanzhou/ch10/g34060r36375'
p1721
aS'http://www.dianping.com/quanzhou/ch10/g132'
p1722
aS'http://www.dianping.com/quanzhou/ch10/g134'
p1723
aS'http://www.dianping.com/quanzhou/ch10/g1805r30453'
p1724
aS'http://www.dianping.com/quanzhou/ch10/g1338r13307'
p1725
aS'http://www.dianping.com/quanzhou/ch10/g1338r13308'
p1726
aS'http://www.dianping.com/quanzhou/ch10/g34065r88402'
p1727
aS'http://www.dianping.com/quanzhou/ch10/g34279r86528'
p1728
aS'http://www.dianping.com/quanzhou/ch10/g34243r64615'
p1729
aS'http://www.dianping.com/quanzhou/ch10/g34243r65743'
p1730
aS'http://www.dianping.com/quanzhou/ch10/g34278r30366'
p1731
aS'http://www.dianping.com/quanzhou/ch10/g2951r30453'
p1732
aS'http://www.dianping.com/quanzhou/ch10/g208r13323'
p1733
aS'http://www.dianping.com/quanzhou/ch10/g247r88402'
p1734
aS'http://www.dianping.com/quanzhou/ch10/g247r88408'
p1735
aS'http://www.dianping.com/quanzhou/ch10/g4473r28023'
p1736
aS'http://www.dianping.com/quanzhou/ch10/g32731r36353'
p1737
aS'http://www.dianping.com/quanzhou/ch10/g34065r30453'
p1738
aS'http://www.dianping.com/quanzhou/ch10/g34245r25348'
p1739
aS'http://www.dianping.com/quanzhou/ch10/g1797r4145'
p1740
aS'http://www.dianping.com/quanzhou/ch10/g26482r4144'
p1741
aS'http://www.dianping.com/quanzhou/ch10/g26482r4141'
p1742
aS'http://www.dianping.com/quanzhou/ch10/g34245r25347'
p1743
aS'http://www.dianping.com/quanzhou/ch10/g26482r4142'
p1744
aS'http://www.dianping.com/quanzhou/ch10/g4447r4141'
p1745
aS'http://www.dianping.com/quanzhou/ch10/g4583r13321'
p1746
aS'http://www.dianping.com/quanzhou/ch10/g4447r4143'
p1747
aS'http://www.dianping.com/quanzhou/ch10/g4447r4142'
p1748
aS'http://www.dianping.com/quanzhou/ch10/g4447r4145'
p1749
aS'http://www.dianping.com/quanzhou/ch10/g2951r13323'
p1750
aS'http://www.dianping.com/quanzhou/ch10/g2951r13320'
p1751
aS'http://www.dianping.com/quanzhou/ch10/g4447r4146'
p1752
aS'http://www.dianping.com/quanzhou/ch10/g4583r13323'
p1753
aS'http://www.dianping.com/quanzhou/ch10/g248r13319'
p1754
aS'http://www.dianping.com/quanzhou/ch10/g4473r13321'
p1755
aS'http://www.dianping.com/quanzhou/ch10/g4583r13324'
p1756
aS'http://www.dianping.com/quanzhou/ch10/g1797r4144'
p1757
aS'http://www.dianping.com/quanzhou/ch10/g208r25348'
p1758
aS'http://www.dianping.com/quanzhou/ch10/g1797r4141'
p1759
aS'http://www.dianping.com/quanzhou/ch10/g1797r4143'
p1760
aS'http://www.dianping.com/quanzhou/ch10/g34277r13326'
p1761
aS'http://www.dianping.com/quanzhou/ch10/g208r25347'
p1762
aS'http://www.dianping.com/quanzhou/ch10/g252r28423'
p1763
aS'http://www.dianping.com/quanzhou/ch10/g252r28426'
p1764
aS'http://www.dianping.com/quanzhou/ch10/g252r28427'
p1765
aS'http://www.dianping.com/quanzhou/ch10/g252r28424'
p1766
aS'http://www.dianping.com/quanzhou/ch10/g247r24520'
p1767
aS'http://www.dianping.com/quanzhou/ch10/g247r24523'
p1768
aS'http://www.dianping.com/quanzhou/ch10/g32712r13311'
p1769
aS'http://www.dianping.com/quanzhou/ch10/g2951r25347'
p1770
aS'http://www.dianping.com/quanzhou/ch10/g34257r25353'
p1771
aS'http://www.dianping.com/quanzhou/ch10/g34257r25351'
p1772
aS'http://www.dianping.com/quanzhou/ch10/g34257r25350'
p1773
aS'http://www.dianping.com/quanzhou/ch10/g34257r25356'
p1774
aS'http://www.dianping.com/quanzhou/ch10/g34278r25347'
p1775
aS'http://www.dianping.com/quanzhou/ch10/g34257r25354'
p1776
aS'http://www.dianping.com/quanzhou/ch10/g34245r46405'
p1777
aS'http://www.dianping.com/quanzhou/ch10/g34245r46404'
p1778
aS'http://www.dianping.com/quanzhou/ch10/g34061r27802'
p1779
aS'http://www.dianping.com/quanzhou/ch10/g4351r28424'
p1780
aS'http://www.dianping.com/quanzhou/ch10/g3027r13326'
p1781
aS'http://www.dianping.com/quanzhou/ch10/g3027r13324'
p1782
aS'http://www.dianping.com/quanzhou/ch10/g3027r13322'
p1783
aS'http://www.dianping.com/quanzhou/ch10/g3027r13321'
p1784
aS'http://www.dianping.com/quanzhou/ch10/g32727r30453'
p1785
aS'http://www.dianping.com/quanzhou/ch10/g252r28425'
p1786
aS'http://www.dianping.com/quanzhou/ch10/g4469r13315'
p1787
aS'http://www.dianping.com/quanzhou/ch10/g34243r25347'
p1788
aS'http://www.dianping.com/quanzhou/ch10/g2823r13312'
p1789
aS'http://www.dianping.com/quanzhou/ch10/g32731r30357'
p1790
aS'http://www.dianping.com/quanzhou/ch10/g34061r30376'
p1791
aS'http://www.dianping.com/quanzhou/ch10/g4469r4144'
p1792
aS'http://www.dianping.com/quanzhou/ch10/g4469r4146'
p1793
aS'http://www.dianping.com/quanzhou/ch10/g4469r4141'
p1794
aS'http://www.dianping.com/quanzhou/ch10/g4469r4143'
p1795
aS'http://www.dianping.com/quanzhou/ch10/g4469r4142'
p1796
aS'http://www.dianping.com/quanzhou/ch10/g224r25350'
p1797
aS'http://www.dianping.com/quanzhou/ch10/g34245r25349'
p1798
aS'http://www.dianping.com/quanzhou/ch10/g224r25355'
p1799
aS'http://www.dianping.com/quanzhou/ch10/g224r25356'
p1800
aS'http://www.dianping.com/quanzhou/ch10/g105r25347'
p1801
aS'http://www.dianping.com/quanzhou/ch10/g34225r25347'
p1802
aS'http://www.dianping.com/quanzhou/ch10/g34243r46356'
p1803
aS'http://www.dianping.com/quanzhou/ch10/g34243r46355'
p1804
aS'http://www.dianping.com/quanzhou/ch10/g34243r46354'
p1805
aS'http://www.dianping.com/quanzhou/ch10/g1338r30366'
p1806
aS'http://www.dianping.com/quanzhou/ch10/g3027r88389'
p1807
aS'http://www.dianping.com/quanzhou/ch10/g34225r25348'
p1808
aS'http://www.dianping.com/quanzhou/ch10/g247r13322'
p1809
aS'http://www.dianping.com/quanzhou/ch10/g201r27803'
p1810
aS'http://www.dianping.com/quanzhou/ch10/g34241r25347'
p1811
aS'http://www.dianping.com/quanzhou/ch10/g4447r30366'
p1812
aS'http://www.dianping.com/quanzhou/ch10/g225r27802'
p1813
aS'http://www.dianping.com/quanzhou/ch10/g34278r88389'
p1814
aS'http://www.dianping.com/quanzhou/ch10/g247r13326'
p1815
aS'http://www.dianping.com/quanzhou/ch10/g32733r13316'
p1816
aS'http://www.dianping.com/quanzhou/ch10/g105r4145'
p1817
aS'http://www.dianping.com/quanzhou/ch10/g34237r86546'
p1818
aS'http://www.dianping.com/quanzhou/ch10/g105r4146'
p1819
aS'http://www.dianping.com/quanzhou/ch10/g105r4141'
p1820
aS'http://www.dianping.com/quanzhou/ch10/g34237r86542'
p1821
aS'http://www.dianping.com/quanzhou/ch10/g105r4143'
p1822
aS'http://www.dianping.com/quanzhou/ch10/g105r4142'
p1823
aS'http://www.dianping.com/quanzhou/ch10/g32726r28425'
p1824
aS'http://www.dianping.com/quanzhou/ch10/g34243r30376'
p1825
aS'http://www.dianping.com/quanzhou/ch10/g34060r88389'
p1826
aS'http://www.dianping.com/quanzhou/ch10/g3023r36375'
p1827
aS'http://www.dianping.com/quanzhou/ch10/g3031r4143'
p1828
aS'http://www.dianping.com/quanzhou/ch10/g3031r4141'
p1829
aS'http://www.dianping.com/quanzhou/ch10/g26483r25347'
p1830
aS'http://www.dianping.com/quanzhou/ch10/g4447r88392'
p1831
aS'http://www.dianping.com/quanzhou/ch10/g34240r30453'
p1832
aS'http://www.dianping.com/quanzhou/ch10/g34257r30357'
p1833
aS'http://www.dianping.com/quanzhou/ch10/g4473r36353'
p1834
aS'http://www.dianping.com/quanzhou/ch10/g1785r86538'
p1835
aS'http://www.dianping.com/quanzhou/ch10/g4473r88391'
p1836
aS'http://www.dianping.com/quanzhou/ch10/g4473r88392'
p1837
aS'http://www.dianping.com/quanzhou/ch10/g225r30453'
p1838
aS'http://www.dianping.com/quanzhou/ch10/g32731r27802'
p1839
aS'http://www.dianping.com/quanzhou/ch10/g32731r27803'
p1840
aS'http://www.dianping.com/quanzhou/ch10/g32731r27800'
p1841
aS'http://www.dianping.com/quanzhou/ch10/g32731r27801'
p1842
aS'http://www.dianping.com/quanzhou/ch10/g34060r4144'
p1843
aS'http://www.dianping.com/quanzhou/ch10/g34060r4146'
p1844
aS'http://www.dianping.com/quanzhou/ch10/g34240r86537'
p1845
aS'http://www.dianping.com/quanzhou/ch10/g34060r4141'
p1846
aS'http://www.dianping.com/quanzhou/ch10/g34060r4142'
p1847
aS'http://www.dianping.com/quanzhou/ch10/g34060r4143'
p1848
aS'http://www.dianping.com/quanzhou/ch10/g4473r88408'
p1849
aS'http://www.dianping.com/quanzhou/ch10/g34257r25359'
p1850
aS'http://www.dianping.com/quanzhou/ch10/g4447r13306'
p1851
aS'http://www.dianping.com/quanzhou/ch10/g4447r13307'
p1852
aS'http://www.dianping.com/quanzhou/ch10/g4447r13304'
p1853
aS'http://www.dianping.com/quanzhou/ch10/g4447r13305'
p1854
aS'http://www.dianping.com/quanzhou/ch10/g34246r4142'
p1855
aS'http://www.dianping.com/quanzhou/ch10/g34246r4143'
p1856
aS'http://www.dianping.com/quanzhou/ch10/g4447r13308'
p1857
aS'http://www.dianping.com/quanzhou/ch10/g34246r4141'
p1858
aS'http://www.dianping.com/quanzhou/ch10/g34246r4146'
p1859
aS'http://www.dianping.com/quanzhou/ch10/g34246r4144'
p1860
aS'http://www.dianping.com/quanzhou/ch10/g34246r4145'
p1861
aS'http://www.dianping.com/quanzhou/ch10/g1338r4144'
p1862
aS'http://www.dianping.com/quanzhou/ch10/g32731r88389'
p1863
aS'http://www.dianping.com/quanzhou/ch10/g34243r13319'
p1864
aS'http://www.dianping.com/quanzhou/ch10/g34243r13318'
p1865
aS'http://www.dianping.com/quanzhou/ch10/g3023r28424'
p1866
aS'http://www.dianping.com/quanzhou/ch10/g3023r28423'
p1867
aS'http://www.dianping.com/quanzhou/ch10/g32723r88402'
p1868
aS'http://www.dianping.com/quanzhou/ch10/g34243r13311'
p1869
aS'http://www.dianping.com/quanzhou/ch10/g34243r13310'
p1870
aS'http://www.dianping.com/quanzhou/ch10/g34243r13313'
p1871
aS'http://www.dianping.com/quanzhou/ch10/g34243r13312'
p1872
aS'http://www.dianping.com/quanzhou/ch10/g34243r13315'
p1873
aS'http://www.dianping.com/quanzhou/ch10/g34243r13314'
p1874
aS'http://www.dianping.com/quanzhou/ch10/g34243r13317'
p1875
aS'http://www.dianping.com/quanzhou/ch10/g34243r13316'
p1876
aS'http://www.dianping.com/quanzhou/ch10/g4467r13308'
p1877
aS'http://www.dianping.com/quanzhou/ch10/g4467r13309'
p1878
aS'http://www.dianping.com/quanzhou/ch10/g4467r13304'
p1879
aS'http://www.dianping.com/quanzhou/ch10/g4467r13305'
p1880
aS'http://www.dianping.com/quanzhou/ch10/g4467r13306'
p1881
aS'http://www.dianping.com/quanzhou/ch10/g4467r13307'
p1882
aS'http://www.dianping.com/quanzhou/ch10/g34245r4143'
p1883
aS'http://www.dianping.com/quanzhou/ch10/g34245r4142'
p1884
aS'http://www.dianping.com/quanzhou/ch10/g34245r4141'
p1885
aS'http://www.dianping.com/quanzhou/ch10/g4273r25347'
p1886
aS'http://www.dianping.com/quanzhou/ch10/g34245r4146'
p1887
aS'http://www.dianping.com/quanzhou/ch10/g34245r4145'
p1888
aS'http://www.dianping.com/quanzhou/ch10/g34245r4144'
p1889
aS'http://www.dianping.com/quanzhou/ch10/g34279r13326'
p1890
aS'http://www.dianping.com/quanzhou/ch10/g25151r30453'
p1891
aS'http://www.dianping.com/quanzhou/ch10/g34061r13304'
p1892
aS'http://www.dianping.com/quanzhou/ch10/g34277r27802'
p1893
aS'http://www.dianping.com/quanzhou/ch10/g226r25355'
p1894
aS'http://www.dianping.com/quanzhou/ch10/g34061r13309'
p1895
aS'http://www.dianping.com/quanzhou/ch10/g32726r13307'
p1896
aS'http://www.dianping.com/quanzhou/ch10/g4467r25363'
p1897
aS'http://www.dianping.com/quanzhou/ch10/g4593r4145'
p1898
aS'http://www.dianping.com/quanzhou/ch10/g4467r25360'
p1899
aS'http://www.dianping.com/quanzhou/ch10/g1338r13321'
p1900
aS'http://www.dianping.com/quanzhou/ch10/g104'
p1901
aS'http://www.dianping.com/quanzhou/ch10/g25151r89506'
p1902
aS'http://www.dianping.com/quanzhou/ch10/g32730r13317'
p1903
aS'http://www.dianping.com/quanzhou/ch10/g1785r88389'
p1904
aS'http://www.dianping.com/quanzhou/ch10/g34245r86538'
p1905
aS'http://www.dianping.com/quanzhou/ch10/g4593r13323'
p1906
aS'http://www.dianping.com/quanzhou/ch10/g4449r86538'
p1907
aS'http://www.dianping.com/quanzhou/ch10/g4467r30366'
p1908
aS'http://www.dianping.com/quanzhou/ch10/g4447r25348'
p1909
aS'http://www.dianping.com/quanzhou/ch10/g252r25353'
p1910
aS'http://www.dianping.com/quanzhou/ch10/g4583r27803'
p1911
aS'http://www.dianping.com/quanzhou/ch10/g4583r27802'
p1912
aS'http://www.dianping.com/quanzhou/ch10/g250r88389'
p1913
aS'http://www.dianping.com/quanzhou/ch10/g32723r13324'
p1914
aS'http://www.dianping.com/quanzhou/ch10/g32723r13326'
p1915
aS'http://www.dianping.com/quanzhou/ch10/g32723r13321'
p1916
aS'http://www.dianping.com/quanzhou/ch10/g4447r13320'
p1917
aS'http://www.dianping.com/quanzhou/ch10/g2951r13319'
p1918
aS'http://www.dianping.com/quanzhou/ch10/g2821r13321'
p1919
aS'http://www.dianping.com/quanzhou/ch10/g248r13321'
p1920
aS'http://www.dianping.com/quanzhou/ch10/g248r13326'
p1921
aS'http://www.dianping.com/quanzhou/ch10/g4447r13322'
p1922
aS'http://www.dianping.com/quanzhou/ch10/g248r13324'
p1923
aS'http://www.dianping.com/quanzhou/ch10/g2951r13314'
p1924
aS'http://www.dianping.com/quanzhou/ch10/g4447r13324'
p1925
aS'http://www.dianping.com/quanzhou/ch10/g252r25351'
p1926
aS'http://www.dianping.com/quanzhou/ch10/g252r30366'
p1927
aS'http://www.dianping.com/quanzhou/ch10/g4447r13326'
p1928
aS'http://www.dianping.com/quanzhou/ch10/g250r46353'
p1929
aS'http://www.dianping.com/quanzhou/ch10/g34277r13311'
p1930
aS'http://www.dianping.com/quanzhou/ch10/g34277r13312'
p1931
aS'http://www.dianping.com/quanzhou/ch10/g34277r13315'
p1932
aS'http://www.dianping.com/quanzhou/ch10/g4447r30376'
p1933
aS'http://www.dianping.com/quanzhou/ch10/g32712r13308'
p1934
aS'http://www.dianping.com/quanzhou/ch10/g32731r46344'
p1935
aS'http://www.dianping.com/quanzhou/ch10/g34063r30376'
p1936
aS'http://www.dianping.com/quanzhou/ch10/g33924r24523'
p1937
aS'http://www.dianping.com/quanzhou/ch10/g2951r25350'
p1938
aS'http://www.dianping.com/quanzhou/ch10/g4469r4145'
p1939
aS'http://www.dianping.com/quanzhou/ch10/g252r25357'
p1940
aS'http://www.dianping.com/quanzhou/ch10/g4449r88389'
p1941
aS'http://www.dianping.com/quanzhou/ch10/g4581r25347'
p1942
aS'http://www.dianping.com/quanzhou/ch10/g34225r30453'
p1943
aS'http://www.dianping.com/quanzhou/ch10/g225r13324'
p1944
aS'http://www.dianping.com/quanzhou/ch10/g4467r4145'
p1945
aS'http://www.dianping.com/quanzhou/ch10/g4467r4144'
p1946
aS'http://www.dianping.com/quanzhou/ch10/g4467r4143'
p1947
aS'http://www.dianping.com/quanzhou/ch10/g225r13320'
p1948
aS'http://www.dianping.com/quanzhou/ch10/g225r13323'
p1949
aS'http://www.dianping.com/quanzhou/ch10/g4469r27801'
p1950
aS'http://www.dianping.com/quanzhou/ch10/g1797r24523'
p1951
aS'http://www.dianping.com/quanzhou/ch10/g34278r13305'
p1952
aS'http://www.dianping.com/quanzhou/ch10/g34243r88408'
p1953
aS'http://www.dianping.com/quanzhou/ch10/g224r25347'
p1954
aS'http://www.dianping.com/quanzhou/ch10/g252r4141'
p1955
aS'http://www.dianping.com/quanzhou/ch10/g252r4142'
p1956
aS'http://www.dianping.com/quanzhou/ch10/g224r25348'
p1957
aS'http://www.dianping.com/quanzhou/ch10/g252r4144'
p1958
aS'http://www.dianping.com/quanzhou/ch10/g252r4145'
p1959
aS'http://www.dianping.com/quanzhou/ch10/g252r4146'
p1960
aS'http://www.dianping.com/quanzhou/ch10/g4469r13316'
p1961
aS'http://www.dianping.com/quanzhou/ch10/g224r25351'
p1962
aS'http://www.dianping.com/quanzhou/ch10/g4473r25360'
p1963
aS'http://www.dianping.com/quanzhou/ch10/g250r24520'
p1964
aS'http://www.dianping.com/quanzhou/ch10/g250r24523'
p1965
aS'http://www.dianping.com/quanzhou/ch10/g4597r4143'
p1966
aS'http://www.dianping.com/quanzhou/ch10/g33924r25353'
p1967
aS'http://www.dianping.com/quanzhou/ch10/g4597r4141'
p1968
aS'http://www.dianping.com/quanzhou/ch10/g34245r64615'
p1969
aS'http://www.dianping.com/quanzhou/ch10/g34245r46348'
p1970
aS'http://www.dianping.com/quanzhou/ch10/g34245r46347'
p1971
aS'http://www.dianping.com/quanzhou/ch10/g34245r46344'
p1972
aS'http://www.dianping.com/quanzhou/ch10/g34245r65746'
p1973
aS'http://www.dianping.com/quanzhou/ch10/g33924r25350'
p1974
aS'http://www.dianping.com/quanzhou/ch10/g224r30357'
p1975
aS'http://www.dianping.com/quanzhou/ch10/g1785r88402'
p1976
aS'http://www.dianping.com/quanzhou/ch10/g4467r46361'
p1977
aS'http://www.dianping.com/quanzhou/ch10/g3027r27801'
p1978
aS'http://www.dianping.com/quanzhou/ch10/g3027r27800'
p1979
aS'http://www.dianping.com/quanzhou/ch10/g3027r27802'
p1980
aS'http://www.dianping.com/quanzhou/ch10/g34257r88402'
p1981
aS'http://www.dianping.com/quanzhou/ch10/g27823r25362'
p1982
aS'http://www.dianping.com/quanzhou/ch10/g4601r13324'
p1983
aS'http://www.dianping.com/quanzhou/ch10/g4601r13326'
p1984
aS'http://www.dianping.com/quanzhou/ch10/g34041r88408'
p1985
aS'http://www.dianping.com/quanzhou/ch10/g32731r13308'
p1986
aS'http://www.dianping.com/quanzhou/ch10/g34243r30366'
p1987
aS'http://www.dianping.com/quanzhou/ch10/g32733r30376'
p1988
aS'http://www.dianping.com/quanzhou/ch10/g4351r28426'
p1989
aS'http://www.dianping.com/quanzhou/ch10/g241r24523'
p1990
aS'http://www.dianping.com/quanzhou/ch10/g32731r13307'
p1991
aS'http://www.dianping.com/quanzhou/ch10/g34040r27801'
p1992
aS'http://www.dianping.com/quanzhou/ch10/g32731r13305'
p1993
aS'http://www.dianping.com/quanzhou/ch10/g32733r13304'
p1994
aS'http://www.dianping.com/quanzhou/ch10/g32733r13305'
p1995
aS'http://www.dianping.com/quanzhou/ch10/g32733r13306'
p1996
aS'http://www.dianping.com/quanzhou/ch10/g4447r88389'
p1997
aS'http://www.dianping.com/quanzhou/ch10/g26483r25355'
p1998
aS'http://www.dianping.com/quanzhou/ch10/g34241r25355'
p1999
aS'http://www.dianping.com/quanzhou/ch10/g34278r64615'
p2000
aS'http://www.dianping.com/quanzhou/ch10/g3023r13313'
p2001
aS'http://www.dianping.com/quanzhou/ch10/g252r13326'
p2002
aS'http://www.dianping.com/quanzhou/ch10/g1785r86528'
p2003
aS'http://www.dianping.com/quanzhou/ch10/g252r13324'
p2004
aS'http://www.dianping.com/quanzhou/ch10/g252r13323'
p2005
aS'http://www.dianping.com/quanzhou/ch10/g252r13322'
p2006
aS'http://www.dianping.com/quanzhou/ch10/g252r13321'
p2007
aS'http://www.dianping.com/quanzhou/ch10/g32723r30376'
p2008
aS'http://www.dianping.com/quanzhou/ch10/g4351r4143'
p2009
aS'http://www.dianping.com/quanzhou/ch10/g4351r4142'
p2010
aS'http://www.dianping.com/quanzhou/ch10/g4351r4141'
p2011
aS'http://www.dianping.com/quanzhou/ch10/g4351r4146'
p2012
aS'http://www.dianping.com/quanzhou/ch10/g4351r4145'
p2013
aS'http://www.dianping.com/quanzhou/ch10/g4351r4144'
p2014
aS'http://www.dianping.com/quanzhou/ch10/g33924r46353'
p2015
aS'http://www.dianping.com/quanzhou/ch10/g27823r13308'
p2016
aS'http://www.dianping.com/quanzhou/ch10/g34241r30376'
p2017
aS'http://www.dianping.com/quanzhou/ch10/g1338r13309'
p2018
aS'http://www.dianping.com/quanzhou/ch10/g34223r4144'
p2019
aS'http://www.dianping.com/quanzhou/ch10/g34223r4143'
p2020
aS'http://www.dianping.com/quanzhou/ch10/g34223r4142'
p2021
aS'http://www.dianping.com/quanzhou/ch10/g34223r4141'
p2022
aS'http://www.dianping.com/quanzhou/ch10/g32731r88391'
p2023
aS'http://www.dianping.com/quanzhou/ch10/g3017r30453'
p2024
aS'http://www.dianping.com/quanzhou/ch10/g34243r13324'
p2025
aS'http://www.dianping.com/quanzhou/ch10/g2951r4146'
p2026
aS'http://www.dianping.com/quanzhou/ch10/g2951r4145'
p2027
aS'http://www.dianping.com/quanzhou/ch10/g2951r4144'
p2028
aS'http://www.dianping.com/quanzhou/ch10/g34243r13320'
p2029
aS'http://www.dianping.com/quanzhou/ch10/g34243r13321'
p2030
aS'http://www.dianping.com/quanzhou/ch10/g2951r4141'
p2031
aS'http://www.dianping.com/quanzhou/ch10/g34243r13323'
p2032
aS'http://www.dianping.com/quanzhou/ch10/g32723r27802'
p2033
aS'http://www.dianping.com/quanzhou/ch10/g3017r27220'
p2034
aS'http://www.dianping.com/quanzhou/ch10/g34061r86546'
p2035
aS'http://www.dianping.com/quanzhou/ch10/g224r13324'
p2036
aS'http://www.dianping.com/quanzhou/ch10/g224r13320'
p2037
aS'http://www.dianping.com/quanzhou/ch10/g224r13321'
p2038
aS'http://www.dianping.com/quanzhou/ch10/g224r13322'
p2039
aS'http://www.dianping.com/quanzhou/ch10/g224r13323'
p2040
aS'http://www.dianping.com/quanzhou/ch10/g34246r86546'
p2041
aS'http://www.dianping.com/quanzhou/ch10/g34246r86542'
p2042
aS'http://www.dianping.com/quanzhou/ch10/g4481r88408'
p2043
aS'http://www.dianping.com/quanzhou/ch10/g34237r30366'
p2044
aS'http://www.dianping.com/quanzhou/ch10/g34061r13316'
p2045
aS'http://www.dianping.com/quanzhou/ch10/g226r25347'
p2046
aS'http://www.dianping.com/quanzhou/ch10/g34061r13314'
p2047
aS'http://www.dianping.com/quanzhou/ch10/g34257r28023'
p2048
aS'http://www.dianping.com/quanzhou/ch10/g226r25348'
p2049
aS'http://www.dianping.com/quanzhou/ch10/g34061r13319'
p2050
aS'http://www.dianping.com/quanzhou/ch10/g34061r13318'
p2051
aS'http://www.dianping.com/quanzhou/ch10/g34060r13326'
p2052
aS'http://www.dianping.com/quanzhou/ch10/g32726r13317'
p2053
aS'http://www.dianping.com/quanzhou/ch10/g34060r13324'
p2054
aS'http://www.dianping.com/quanzhou/ch10/g34060r13323'
p2055
aS'http://www.dianping.com/quanzhou/ch10/g34060r13322'
p2056
aS'http://www.dianping.com/quanzhou/ch10/g34060r13321'
p2057
aS'http://www.dianping.com/quanzhou/ch10/g34060r13320'
p2058
aS'http://www.dianping.com/quanzhou/ch10/g34256r30453'
p2059
aS'http://www.dianping.com/quanzhou/ch10/g25151r4145'
p2060
aS'http://www.dianping.com/quanzhou/ch10/g34243r28423'
p2061
aS'http://www.dianping.com/quanzhou/ch10/g34241r28424'
p2062
aS'http://www.dianping.com/quanzhou/ch10/g34243r28425'
p2063
aS'http://www.dianping.com/quanzhou/ch10/g34243r28424'
p2064
aS'http://www.dianping.com/quanzhou/ch10/g34243r28427'
p2065
aS'http://www.dianping.com/quanzhou/ch10/g34243r28426'
p2066
aS'http://www.dianping.com/quanzhou/ch10/g4481r4146'
p2067
aS'http://www.dianping.com/quanzhou/ch10/g111'
p2068
aS'http://www.dianping.com/quanzhou/ch10/g4481r4144'
p2069
aS'http://www.dianping.com/quanzhou/ch10/g4481r4143'
p2070
aS'http://www.dianping.com/quanzhou/ch10/g4481r4142'
p2071
aS'http://www.dianping.com/quanzhou/ch10/g4481r4141'
p2072
aS'http://www.dianping.com/quanzhou/ch10/g114'
p2073
aS'http://www.dianping.com/quanzhou/ch10/g4477r30453'
p2074
aS'http://www.dianping.com/quanzhou/ch10/g4467r36374'
p2075
aS'http://www.dianping.com/quanzhou/ch10/g4467r30376'
p2076
aS'http://www.dianping.com/quanzhou/ch10/g4469r86537'
p2077
aS'http://www.dianping.com/quanzhou/ch10/g34245r86546'
p2078
aS'http://www.dianping.com/quanzhou/ch10/g34245r86542'
p2079
aS'http://www.dianping.com/quanzhou/ch10/g252r36353'
p2080
aS'http://www.dianping.com/quanzhou/ch10/g252r36357'
p2081
aS'http://www.dianping.com/quanzhou/ch10/g25151r25351'
p2082
aS'http://www.dianping.com/quanzhou/ch10/g201r30453'
p2083
aS'http://www.dianping.com/quanzhou/ch10/g27823r46354'
p2084
aS'http://www.dianping.com/quanzhou/ch10/g105r4144'
p2085
aS'http://www.dianping.com/quanzhou/ch10/g4473r4142'
p2086
aS'http://www.dianping.com/quanzhou/ch10/g34245r25361'
p2087
aS'http://www.dianping.com/quanzhou/ch10/g34245r25360'
p2088
aS'http://www.dianping.com/quanzhou/ch10/g32723r13316'
p2089
aS'http://www.dianping.com/quanzhou/ch10/g32723r13317'
p2090
aS'http://www.dianping.com/quanzhou/ch10/g25151r4144'
p2091
aS'http://www.dianping.com/quanzhou/ch10/g34278r36375'
p2092
aS'http://www.dianping.com/quanzhou/ch10/g4473r4141'
p2093
aS'http://www.dianping.com/quanzhou/ch10/g33950r28427'
p2094
aS'http://www.dianping.com/quanzhou/ch10/g4473r4146'
p2095
aS'http://www.dianping.com/quanzhou/ch10/g33950r28425'
p2096
aS'http://www.dianping.com/quanzhou/ch10/g1338r36353'
p2097
aS'http://www.dianping.com/quanzhou/ch10/g34223r30366'
p2098
aS'http://www.dianping.com/quanzhou/ch10/g4473r4144'
p2099
aS'http://www.dianping.com/quanzhou/ch10/g4473r4145'
p2100
aS'http://www.dianping.com/quanzhou/ch10/g4477r4146'
p2101
aS'http://www.dianping.com/quanzhou/ch10/g4473r27802'
p2102
aS'http://www.dianping.com/quanzhou/ch10/g4477r4144'
p2103
aS'http://www.dianping.com/quanzhou/ch10/g4477r4145'
p2104
aS'http://www.dianping.com/quanzhou/ch10/g4477r4142'
p2105
aS'http://www.dianping.com/quanzhou/ch10/g4477r4143'
p2106
aS'http://www.dianping.com/quanzhou/ch10/g4477r4141'
p2107
aS'http://www.dianping.com/quanzhou/ch10/g203r25355'
p2108
aS'http://www.dianping.com/quanzhou/ch10/g1783'
p2109
aS'http://www.dianping.com/quanzhou/ch10/g33950r88402'
p2110
aS'http://www.dianping.com/quanzhou/ch10/g4473r89506'
p2111
aS'http://www.dianping.com/quanzhou/ch10/g34237r36353'
p2112
aS'http://www.dianping.com/quanzhou/ch10/g1785r24523'
p2113
aS'http://www.dianping.com/quanzhou/ch10/g241r86546'
p2114
aS'http://www.dianping.com/quanzhou/ch10/g26482r13326'
p2115
aS'http://www.dianping.com/quanzhou/ch10/g241r86542'
p2116
aS'http://www.dianping.com/quanzhou/ch10/g252r27801'
p2117
aS'http://www.dianping.com/quanzhou/ch10/g252r27800'
p2118
aS'http://www.dianping.com/quanzhou/ch10/g252r27803'
p2119
aS'http://www.dianping.com/quanzhou/ch10/g252r27802'
p2120
aS'http://www.dianping.com/quanzhou/ch10/g4273r30453'
p2121
aS'http://www.dianping.com/quanzhou/ch10/g32731r30376'
p2122
aS'http://www.dianping.com/quanzhou/ch10/g34063r24520'
p2123
aS'http://www.dianping.com/quanzhou/ch10/g241r28424'
p2124
aS'http://www.dianping.com/quanzhou/ch10/g4351r13323'
p2125
aS'http://www.dianping.com/quanzhou/ch10/g4351r13320'
p2126
aS'http://www.dianping.com/quanzhou/ch10/g4351r13321'
p2127
aS'http://www.dianping.com/quanzhou/ch10/g4351r13326'
p2128
aS'http://www.dianping.com/quanzhou/ch10/g34278r13317'
p2129
aS'http://www.dianping.com/quanzhou/ch10/g34060r13317'
p2130
aS'http://www.dianping.com/quanzhou/ch10/g4583r89506'
p2131
aS'http://www.dianping.com/quanzhou/ch10/g26482r13323'
p2132
aS'http://www.dianping.com/quanzhou/ch10/g1338r4141'
p2133
aS'http://www.dianping.com/quanzhou/ch10/g3095r13308'
p2134
aS'http://www.dianping.com/quanzhou/ch10/g34225r13307'
p2135
aS'http://www.dianping.com/quanzhou/ch10/g3233r36353'
p2136
aS'http://www.dianping.com/quanzhou/ch10/g34245r27800'
p2137
aS'http://www.dianping.com/quanzhou/ch10/g34245r27801'
p2138
aS'http://www.dianping.com/quanzhou/ch10/g34245r27802'
p2139
aS'http://www.dianping.com/quanzhou/ch10/g34245r27803'
p2140
aS'http://www.dianping.com/quanzhou/ch10/g34245r46351'
p2141
aS'http://www.dianping.com/quanzhou/ch10/g25151r27803'
p2142
aS'http://www.dianping.com/quanzhou/ch10/g34245r46352'
p2143
aS'http://www.dianping.com/quanzhou/ch10/g34060r24520'
p2144
aS'http://www.dianping.com/quanzhou/ch10/g4597r88391'
p2145
aS'http://www.dianping.com/quanzhou/ch10/g247r30453'
p2146
aS'http://www.dianping.com/quanzhou/ch10/g1797r88389'
p2147
aS'http://www.dianping.com/quanzhou/ch10/g27823r25355'
p2148
aS'http://www.dianping.com/quanzhou/ch10/g27823r25356'
p2149
aS'http://www.dianping.com/quanzhou/ch10/g27823r25350'
p2150
aS'http://www.dianping.com/quanzhou/ch10/g27823r25353'
p2151
aS'http://www.dianping.com/quanzhou/ch10/g3017r4143'
p2152
aS'http://www.dianping.com/quanzhou/ch10/g3017r4142'
p2153
aS'http://www.dianping.com/quanzhou/ch10/g3017r4141'
p2154
aS'http://www.dianping.com/quanzhou/ch10/g3017r4146'
p2155
aS'http://www.dianping.com/quanzhou/ch10/g3017r4145'
p2156
aS'http://www.dianping.com/quanzhou/ch10/g3017r4144'
p2157
aS'http://www.dianping.com/quanzhou/ch10/g32731r13319'
p2158
aS'http://www.dianping.com/quanzhou/ch10/g32731r13318'
p2159
aS'http://www.dianping.com/quanzhou/ch10/g4583r24523'
p2160
aS'http://www.dianping.com/quanzhou/ch10/g32731r13311'
p2161
aS'http://www.dianping.com/quanzhou/ch10/g32731r13310'
p2162
aS'http://www.dianping.com/quanzhou/ch10/g32731r13313'
p2163
aS'http://www.dianping.com/quanzhou/ch10/g32731r13312'
p2164
aS'http://www.dianping.com/quanzhou/ch10/g32731r13315'
p2165
aS'http://www.dianping.com/quanzhou/ch10/g32731r13314'
p2166
aS'http://www.dianping.com/quanzhou/ch10/g32731r13317'
p2167
aS'http://www.dianping.com/quanzhou/ch10/g32731r13316'
p2168
aS'http://www.dianping.com/quanzhou/ch10/g3023r36353'
p2169
aS'http://www.dianping.com/quanzhou/ch10/g32733r13319'
p2170
aS'http://www.dianping.com/quanzhou/ch10/g34241r25348'
p2171
aS'http://www.dianping.com/quanzhou/ch10/g224r36353'
p2172
aS'http://www.dianping.com/quanzhou/ch10/g32733r13313'
p2173
aS'http://www.dianping.com/quanzhou/ch10/g32733r13312'
p2174
aS'http://www.dianping.com/quanzhou/ch10/g32733r13311'
p2175
aS'http://www.dianping.com/quanzhou/ch10/g32733r13310'
p2176
aS'http://www.dianping.com/quanzhou/ch10/g32733r13317'
p2177
aS'http://www.dianping.com/quanzhou/ch10/g4449r24523'
p2178
aS'http://www.dianping.com/quanzhou/ch10/g34277r36375'
p2179
aS'http://www.dianping.com/quanzhou/ch10/g252r46355'
p2180
aS'http://www.dianping.com/quanzhou/ch10/g34257r30376'
p2181
aS'http://www.dianping.com/quanzhou/ch10/g4473r36375'
p2182
aS'http://www.dianping.com/quanzhou/ch10/g252r13312'
p2183
aS'http://www.dianping.com/quanzhou/ch10/g252r13313'
p2184
aS'http://www.dianping.com/quanzhou/ch10/g252r13310'
p2185
aS'http://www.dianping.com/quanzhou/ch10/g252r13311'
p2186
aS'http://www.dianping.com/quanzhou/ch10/g252r13316'
p2187
aS'http://www.dianping.com/quanzhou/ch10/g252r13317'
p2188
aS'http://www.dianping.com/quanzhou/ch10/g252r13314'
p2189
aS'http://www.dianping.com/quanzhou/ch10/g252r13315'
p2190
aS'http://www.dianping.com/quanzhou/ch10/g252r13318'
p2191
aS'http://www.dianping.com/quanzhou/ch10/g252r13319'
p2192
aS'http://www.dianping.com/quanzhou/ch10/g34237r86538'
p2193
aS'http://www.dianping.com/quanzhou/ch10/g34257r13326'
p2194
aS'http://www.dianping.com/quanzhou/ch10/g34256r13313'
p2195
aS'http://www.dianping.com/quanzhou/ch10/g1797r13311'
p2196
aS'http://www.dianping.com/quanzhou/ch10/g1797r13314'
p2197
aS'http://www.dianping.com/quanzhou/ch10/g33950r13326'
p2198
aS'http://www.dianping.com/quanzhou/ch10/g4447r13321'
p2199
aS'http://www.dianping.com/quanzhou/ch10/g33950r13324'
p2200
aS'http://www.dianping.com/quanzhou/ch10/g4447r13323'
p2201
aS'http://www.dianping.com/quanzhou/ch10/g33950r13322'
p2202
aS'http://www.dianping.com/quanzhou/ch10/g33950r13323'
p2203
aS'http://www.dianping.com/quanzhou/ch10/g33950r13320'
p2204
aS'http://www.dianping.com/quanzhou/ch10/g33950r13321'
p2205
aS'http://www.dianping.com/quanzhou/ch10/g1453r13321'
p2206
aS'http://www.dianping.com/quanzhou/ch10/g226r30453'
p2207
aS'http://www.dianping.com/quanzhou/ch10/g34246r30376'
p2208
aS'http://www.dianping.com/quanzhou/ch10/g32733r88389'
p2209
aS'http://www.dianping.com/quanzhou/ch10/g3027r30357'
p2210
aS'http://www.dianping.com/quanzhou/ch10/g203r4142'
p2211
aS'http://www.dianping.com/quanzhou/ch10/g34255r27802'
p2212
aS'http://www.dianping.com/quanzhou/ch10/g4273r13309'
p2213
aS'http://www.dianping.com/quanzhou/ch10/g4447r27802'
p2214
aS'http://www.dianping.com/quanzhou/ch10/g34240r86538'
p2215
aS'http://www.dianping.com/quanzhou/ch10/g34233r4141'
p2216
aS'http://www.dianping.com/quanzhou/ch10/g34237r30376'
p2217
aS'http://www.dianping.com/quanzhou/ch10/g4473r13318'
p2218
aS'http://www.dianping.com/quanzhou/ch10/g4473r13319'
p2219
aS'http://www.dianping.com/quanzhou/ch10/g4473r13314'
p2220
aS'http://www.dianping.com/quanzhou/ch10/g4473r13315'
p2221
aS'http://www.dianping.com/quanzhou/ch10/g4473r13316'
p2222
aS'http://www.dianping.com/quanzhou/ch10/g4473r13317'
p2223
aS'http://www.dianping.com/quanzhou/ch10/g4473r13311'
p2224
aS'http://www.dianping.com/quanzhou/ch10/g4473r13312'
p2225
aS'http://www.dianping.com/quanzhou/ch10/g4473r13313'
p2226
aS'http://www.dianping.com/quanzhou/ch10/g1785r30366'
p2227
aS'http://www.dianping.com/quanzhou/ch10/g32726r13320'
p2228
aS'http://www.dianping.com/quanzhou/ch10/g32733r27800'
p2229
aS'http://www.dianping.com/quanzhou/ch10/g32733r27801'
p2230
aS'http://www.dianping.com/quanzhou/ch10/g32733r27802'
p2231
aS'http://www.dianping.com/quanzhou/ch10/g32733r27803'
p2232
aS'http://www.dianping.com/quanzhou/ch10/g34243r25360'
p2233
aS'http://www.dianping.com/quanzhou/ch10/g32730r30453'
p2234
aS'http://www.dianping.com/quanzhou/ch10/g4593r13305'
p2235
aS'http://www.dianping.com/quanzhou/ch10/g33924r13312'
p2236
aS'http://www.dianping.com/quanzhou/ch10/g33924r13313'
p2237
aS'http://www.dianping.com/quanzhou/ch10/g33924r13310'
p2238
aS'http://www.dianping.com/quanzhou/ch10/g33924r13311'
p2239
aS'http://www.dianping.com/quanzhou/ch10/g33924r13316'
p2240
aS'http://www.dianping.com/quanzhou/ch10/g33924r13317'
p2241
aS'http://www.dianping.com/quanzhou/ch10/g33924r13314'
p2242
atRp2243
.