c__builtin__
set
p1
((lp2
S'http://www.dianping.com/xiamen/ch10/g217r88415'
p3
aS'http://www.dianping.com/xiamen/ch10/g27801r27447'
p4
aS'http://www.dianping.com/xiamen/ch10/g217r88417'
p5
aS'http://www.dianping.com/xiamen/ch10/g248r70208'
p6
aS'http://www.dianping.com/xiamen/ch10/g217r88412'
p7
aS'http://www.dianping.com/xiamen/ch10/g217r88418'
p8
aS'http://www.dianping.com/xiamen/ch10/g24340r15649'
p9
aS'http://www.dianping.com/xiamen/ch10/g34245r70523'
p10
aS'http://www.dianping.com/xiamen/ch10/g4351r28274'
p11
aS'http://www.dianping.com/xiamen/ch10/g34061r28959'
p12
aS'http://www.dianping.com/xiamen/ch10/g32733r88431'
p13
aS'http://www.dianping.com/xiamen/ch10/g4593r27090'
p14
aS'http://www.dianping.com/xiamen/ch10/g27823r28272'
p15
aS'http://www.dianping.com/xiamen/ch10/g34243r88421'
p16
aS'http://www.dianping.com/xiamen/ch10/g34246r27447'
p17
aS'http://www.dianping.com/xiamen/ch10/g133r65208'
p18
aS'http://www.dianping.com/xiamen/ch10/g208r15650'
p19
aS'http://www.dianping.com/xiamen/ch10/g208r15653'
p20
aS'http://www.dianping.com/xiamen/ch10/g210r28549'
p21
aS'http://www.dianping.com/xiamen/ch10/g217r8085'
p22
aS'http://www.dianping.com/xiamen/ch10/g217r8087'
p23
aS'http://www.dianping.com/xiamen/ch10/g208r15656'
p24
aS'http://www.dianping.com/xiamen/ch10/g4557r28961'
p25
aS'http://www.dianping.com/xiamen/ch10/g4557r28963'
p26
aS'http://www.dianping.com/xiamen/ch10/g27823r88417'
p27
aS'http://www.dianping.com/xiamen/ch10/g217r15649'
p28
aS'http://www.dianping.com/xiamen/ch10/g27823r27090'
p29
aS'http://www.dianping.com/xiamen/ch10/g27803r88421'
p30
aS'http://www.dianping.com/xiamen/ch10/g34246r88401'
p31
aS'http://www.dianping.com/xiamen/ch10/g34246r88403'
p32
aS'http://www.dianping.com/xiamen/ch10/g34246r88405'
p33
aS'http://www.dianping.com/xiamen/ch10/g34246r88404'
p34
aS'http://www.dianping.com/xiamen/ch10/g34246r88407'
p35
aS'http://www.dianping.com/xiamen/ch10/g34246r88409'
p36
aS'http://www.dianping.com/xiamen/ch10/g133r15654'
p37
aS'http://www.dianping.com/xiamen/ch10/g133r15655'
p38
aS'http://www.dianping.com/xiamen/ch10/g133r15656'
p39
aS'http://www.dianping.com/xiamen/ch10/g34063r1839'
p40
aS'http://www.dianping.com/xiamen/ch10/g133r15651'
p41
aS'http://www.dianping.com/xiamen/ch10/g133r15652'
p42
aS'http://www.dianping.com/xiamen/ch10/g34240r27054'
p43
aS'http://www.dianping.com/xiamen/ch10/g25151r15653'
p44
aS'http://www.dianping.com/xiamen/ch10/g25151r15652'
p45
aS'http://www.dianping.com/xiamen/ch10/g25151r15651'
p46
aS'http://www.dianping.com/xiamen/ch10/g34063r1836'
p47
aS'http://www.dianping.com/xiamen/ch10/g25151r15655'
p48
aS'http://www.dianping.com/xiamen/ch10/g27804r88403'
p49
aS'http://www.dianping.com/xiamen/ch10/g4273r88431'
p50
aS'http://www.dianping.com/xiamen/ch10/g4273r88432'
p51
aS'http://www.dianping.com/xiamen/ch10/g1821r27090'
p52
aS'http://www.dianping.com/xiamen/ch10/g4449r28961'
p53
aS'http://www.dianping.com/xiamen/ch10/g4449r28960'
p54
aS'http://www.dianping.com/xiamen/ch10/g4449r28963'
p55
aS'http://www.dianping.com/xiamen/ch10/g4449r28965'
p56
aS'http://www.dianping.com/xiamen/ch10/g4449r28964'
p57
aS'http://www.dianping.com/xiamen/ch10/g208r28958'
p58
aS'http://www.dianping.com/xiamen/ch10/g4583r15654'
p59
aS'http://www.dianping.com/xiamen/ch10/g3027r88431'
p60
aS'http://www.dianping.com/xiamen/ch10/g32731r1835'
p61
aS'http://www.dianping.com/xiamen/ch10/g4453r8374'
p62
aS'http://www.dianping.com/xiamen/ch10/g4453r8375'
p63
aS'http://www.dianping.com/xiamen/ch10/g222r28549'
p64
aS'http://www.dianping.com/xiamen/ch10/g32731r1830'
p65
aS'http://www.dianping.com/xiamen/ch10/g32731r1833'
p66
aS'http://www.dianping.com/xiamen/ch10/g32731r1832'
p67
aS'http://www.dianping.com/xiamen/ch10/g217r27054'
p68
aS'http://www.dianping.com/xiamen/ch10/g32731r1839'
p69
aS'http://www.dianping.com/xiamen/ch10/g34225r2008'
p70
aS'http://www.dianping.com/xiamen/ch10/g3027r28549'
p71
aS'http://www.dianping.com/xiamen/ch10/g4467r1839'
p72
aS'http://www.dianping.com/xiamen/ch10/g4467r1838'
p73
aS'http://www.dianping.com/xiamen/ch10/g25151r88409'
p74
aS'http://www.dianping.com/xiamen/ch10/g1881r15649'
p75
aS'http://www.dianping.com/xiamen/ch10/g32733r1840'
p76
aS'http://www.dianping.com/xiamen/ch10/g34241r27447'
p77
aS'http://www.dianping.com/xiamen/ch10/g34065r2008'
p78
aS'http://www.dianping.com/xiamen/ch10/g34246r85846'
p79
aS'http://www.dianping.com/xiamen/ch10/g4473r88403'
p80
aS'http://www.dianping.com/xiamen/ch10/g2621r65208'
p81
aS'http://www.dianping.com/xiamen/ch10/g4473r88401'
p82
aS'http://www.dianping.com/xiamen/ch10/g4473r88404'
p83
aS'http://www.dianping.com/xiamen/ch10/g4473r88409'
p84
aS'http://www.dianping.com/xiamen/ch10/g27803r15649'
p85
aS'http://www.dianping.com/xiamen/ch10/g3243r1846'
p86
aS'http://www.dianping.com/xiamen/ch10/g3243r1845'
p87
aS'http://www.dianping.com/xiamen/ch10/g32733r15655'
p88
aS'http://www.dianping.com/xiamen/ch10/g32733r15654'
p89
aS'http://www.dianping.com/xiamen/ch10/g4469r88431'
p90
aS'http://www.dianping.com/xiamen/ch10/g32733r15656'
p91
aS'http://www.dianping.com/xiamen/ch10/g32733r15651'
p92
aS'http://www.dianping.com/xiamen/ch10/g32733r15653'
p93
aS'http://www.dianping.com/xiamen/ch10/g32733r15652'
p94
aS'http://www.dianping.com/xiamen/ch10/g27823r8373'
p95
aS'http://www.dianping.com/xiamen/ch10/g33924r88418'
p96
aS'http://www.dianping.com/xiamen/ch10/g27823r8374'
p97
aS'http://www.dianping.com/xiamen/ch10/g3243r27090'
p98
aS'http://www.dianping.com/xiamen/ch10/g109r28959'
p99
aS'http://www.dianping.com/xiamen/ch10/g4351r28958'
p100
aS'http://www.dianping.com/xiamen/ch10/g4467r28887'
p101
aS'http://www.dianping.com/xiamen/ch10/g32731r70175'
p102
aS'http://www.dianping.com/xiamen/ch10/g27823r28964'
p103
aS'http://www.dianping.com/xiamen/ch10/g4481r27090'
p104
aS'http://www.dianping.com/xiamen/ch10/g101r8373'
p105
aS'http://www.dianping.com/xiamen/ch10/g34237r1838'
p106
aS'http://www.dianping.com/xiamen/ch10/g34237r1839'
p107
aS'http://www.dianping.com/xiamen/ch10/g34237r1836'
p108
aS'http://www.dianping.com/xiamen/ch10/g34237r1837'
p109
aS'http://www.dianping.com/xiamen/ch10/g34237r1834'
p110
aS'http://www.dianping.com/xiamen/ch10/g34237r1835'
p111
aS'http://www.dianping.com/xiamen/ch10/g34237r1832'
p112
aS'http://www.dianping.com/xiamen/ch10/g34237r1833'
p113
aS'http://www.dianping.com/xiamen/ch10/g34237r1830'
p114
aS'http://www.dianping.com/xiamen/ch10/g34237r1831'
p115
aS'http://www.dianping.com/xiamen/ch10/g205r28961'
p116
aS'http://www.dianping.com/xiamen/ch10/g34243r15649'
p117
aS'http://www.dianping.com/xiamen/ch10/g34060r1845'
p118
aS'http://www.dianping.com/xiamen/ch10/g34060r1844'
p119
aS'http://www.dianping.com/xiamen/ch10/g34060r1847'
p120
aS'http://www.dianping.com/xiamen/ch10/g34060r1846'
p121
aS'http://www.dianping.com/xiamen/ch10/g34060r1840'
p122
aS'http://www.dianping.com/xiamen/ch10/g34060r1842'
p123
aS'http://www.dianping.com/xiamen/ch10/g210r70208'
p124
aS'http://www.dianping.com/xiamen/ch10/g254r27054'
p125
aS'http://www.dianping.com/xiamen/ch10/g101r88415'
p126
aS'http://www.dianping.com/xiamen/ch10/g4473r27090'
p127
aS'http://www.dianping.com/xiamen/ch10/g34241r28549'
p128
aS'http://www.dianping.com/xiamen/ch10/g32733r28887'
p129
aS'http://www.dianping.com/xiamen/ch10/g4481r1839'
p130
aS'http://www.dianping.com/xiamen/ch10/g1785r27054'
p131
aS'http://www.dianping.com/xiamen/ch10/g4477r88418'
p132
aS'http://www.dianping.com/xiamen/ch10/g26483r8085'
p133
aS'http://www.dianping.com/xiamen/ch10/g105r15656'
p134
aS'http://www.dianping.com/xiamen/ch10/g4477r88415'
p135
aS'http://www.dianping.com/xiamen/ch10/g1821r70185'
p136
aS'http://www.dianping.com/xiamen/ch10/g4477r88412'
p137
aS'http://www.dianping.com/xiamen/ch10/g34237r85846'
p138
aS'http://www.dianping.com/xiamen/ch10/g101r15656'
p139
aS'http://www.dianping.com/xiamen/ch10/g101r15655'
p140
aS'http://www.dianping.com/xiamen/ch10/g34060r28958'
p141
aS'http://www.dianping.com/xiamen/ch10/g208r15655'
p142
aS'http://www.dianping.com/xiamen/ch10/g101r15654'
p143
aS'http://www.dianping.com/xiamen/ch10/g34240r1834'
p144
aS'http://www.dianping.com/xiamen/ch10/g34240r1835'
p145
aS'http://www.dianping.com/xiamen/ch10/g34240r1836'
p146
aS'http://www.dianping.com/xiamen/ch10/g34240r1837'
p147
aS'http://www.dianping.com/xiamen/ch10/g34240r1830'
p148
aS'http://www.dianping.com/xiamen/ch10/g34240r1832'
p149
aS'http://www.dianping.com/xiamen/ch10/g34240r1833'
p150
aS'http://www.dianping.com/xiamen/ch10/g34240r1838'
p151
aS'http://www.dianping.com/xiamen/ch10/g34240r1839'
p152
aS'http://www.dianping.com/xiamen/ch10/g27801r25928'
p153
aS'http://www.dianping.com/xiamen/ch10/g32731r8375'
p154
aS'http://www.dianping.com/xiamen/ch10/g32731r8374'
p155
aS'http://www.dianping.com/xiamen/ch10/g210r88418'
p156
aS'http://www.dianping.com/xiamen/ch10/g210r88417'
p157
aS'http://www.dianping.com/xiamen/ch10/g210r88415'
p158
aS'http://www.dianping.com/xiamen/ch10/g210r88412'
p159
aS'http://www.dianping.com/xiamen/ch10/g34223r1839'
p160
aS'http://www.dianping.com/xiamen/ch10/g34244r2007'
p161
aS'http://www.dianping.com/xiamen/ch10/g34237r88405'
p162
aS'http://www.dianping.com/xiamen/ch10/g34237r88404'
p163
aS'http://www.dianping.com/xiamen/ch10/g34237r88407'
p164
aS'http://www.dianping.com/xiamen/ch10/g34237r88401'
p165
aS'http://www.dianping.com/xiamen/ch10/g34237r88403'
p166
aS'http://www.dianping.com/xiamen/ch10/g34040r1839'
p167
aS'http://www.dianping.com/xiamen/ch10/g34040r1836'
p168
aS'http://www.dianping.com/xiamen/ch10/g34040r1837'
p169
aS'http://www.dianping.com/xiamen/ch10/g109r11310'
p170
aS'http://www.dianping.com/xiamen/ch10/g34237r88409'
p171
aS'http://www.dianping.com/xiamen/ch10/g32730r1846'
p172
aS'http://www.dianping.com/xiamen/ch10/g32730r1845'
p173
aS'http://www.dianping.com/xiamen/ch10/g208r11310'
p174
aS'http://www.dianping.com/xiamen/ch10/g222r15649'
p175
aS'http://www.dianping.com/xiamen/ch10/g4473r88421'
p176
aS'http://www.dianping.com/xiamen/ch10/g4453r88401'
p177
aS'http://www.dianping.com/xiamen/ch10/g4593r1838'
p178
aS'http://www.dianping.com/xiamen/ch10/g4453r88405'
p179
aS'http://www.dianping.com/xiamen/ch10/g4453r88407'
p180
aS'http://www.dianping.com/xiamen/ch10/g134r88421'
p181
aS'http://www.dianping.com/xiamen/ch10/g4477r28549'
p182
aS'http://www.dianping.com/xiamen/ch10/g133r27054'
p183
aS'http://www.dianping.com/xiamen/ch10/g225r8085'
p184
aS'http://www.dianping.com/xiamen/ch10/g252r1843'
p185
aS'http://www.dianping.com/xiamen/ch10/g225r8087'
p186
aS'http://www.dianping.com/xiamen/ch10/g252r1845'
p187
aS'http://www.dianping.com/xiamen/ch10/g252r1844'
p188
aS'http://www.dianping.com/xiamen/ch10/g252r1847'
p189
aS'http://www.dianping.com/xiamen/ch10/g252r1846'
p190
aS'http://www.dianping.com/xiamen/ch10/g34060r15649'
p191
aS'http://www.dianping.com/xiamen/ch10/g4351r8087'
p192
aS'http://www.dianping.com/xiamen/ch10/g4447r8087'
p193
aS'http://www.dianping.com/xiamen/ch10/g34245r70208'
p194
aS'http://www.dianping.com/xiamen/ch10/g1785r2008'
p195
aS'http://www.dianping.com/xiamen/ch10/g133r28958'
p196
aS'http://www.dianping.com/xiamen/ch10/g4351r8085'
p197
aS'http://www.dianping.com/xiamen/ch10/g34240r70185'
p198
aS'http://www.dianping.com/xiamen/ch10/g32731r8087'
p199
aS'http://www.dianping.com/xiamen/ch10/g32731r8085'
p200
aS'http://www.dianping.com/xiamen/ch10/g4509r11310'
p201
aS'http://www.dianping.com/xiamen/ch10/g207r88409'
p202
aS'http://www.dianping.com/xiamen/ch10/g226r27447'
p203
aS'http://www.dianping.com/xiamen/ch10/g207r88405'
p204
aS'http://www.dianping.com/xiamen/ch10/g207r88404'
p205
aS'http://www.dianping.com/xiamen/ch10/g207r88407'
p206
aS'http://www.dianping.com/xiamen/ch10/g134r27447'
p207
aS'http://www.dianping.com/xiamen/ch10/g34223r8374'
p208
aS'http://www.dianping.com/xiamen/ch10/g134r8375'
p209
aS'http://www.dianping.com/xiamen/ch10/g134r8374'
p210
aS'http://www.dianping.com/xiamen/ch10/g210r28959'
p211
aS'http://www.dianping.com/xiamen/ch10/g210r28958'
p212
aS'http://www.dianping.com/xiamen/ch10/g134r8373'
p213
aS'http://www.dianping.com/xiamen/ch10/g252r11310'
p214
aS'http://www.dianping.com/xiamen/ch10/g4473r28963'
p215
aS'http://www.dianping.com/xiamen/ch10/g4473r28961'
p216
aS'http://www.dianping.com/xiamen/ch10/g109r88417'
p217
aS'http://www.dianping.com/xiamen/ch10/g4473r28964'
p218
aS'http://www.dianping.com/xiamen/ch10/g4473r28965'
p219
aS'http://www.dianping.com/xiamen/ch10/g217r88421'
p220
aS'http://www.dianping.com/xiamen/ch10/g226r28887'
p221
aS'http://www.dianping.com/xiamen/ch10/g27803r88437'
p222
aS'http://www.dianping.com/xiamen/ch10/g203r27054'
p223
aS'http://www.dianping.com/xiamen/ch10/g27803r88431'
p224
aS'http://www.dianping.com/xiamen/ch10/g34246r27054'
p225
aS'http://www.dianping.com/xiamen/ch10/g4453r28960'
p226
aS'http://www.dianping.com/xiamen/ch10/g4447r88437'
p227
aS'http://www.dianping.com/xiamen/ch10/g4453r28962'
p228
aS'http://www.dianping.com/xiamen/ch10/g4453r28964'
p229
aS'http://www.dianping.com/xiamen/ch10/g4351r15652'
p230
aS'http://www.dianping.com/xiamen/ch10/g217r30823'
p231
aS'http://www.dianping.com/xiamen/ch10/g27823r65208'
p232
aS'http://www.dianping.com/xiamen/ch10/g32733r88407'
p233
aS'http://www.dianping.com/xiamen/ch10/g32733r88409'
p234
aS'http://www.dianping.com/xiamen/ch10/g34243r88431'
p235
aS'http://www.dianping.com/xiamen/ch10/g27804r27054'
p236
aS'http://www.dianping.com/xiamen/ch10/g34243r88432'
p237
aS'http://www.dianping.com/xiamen/ch10/g34243r88435'
p238
aS'http://www.dianping.com/xiamen/ch10/g207r8085'
p239
aS'http://www.dianping.com/xiamen/ch10/g34243r88437'
p240
aS'http://www.dianping.com/xiamen/ch10/g207r8087'
p241
aS'http://www.dianping.com/xiamen/ch10/g217r15651'
p242
aS'http://www.dianping.com/xiamen/ch10/g217r15650'
p243
aS'http://www.dianping.com/xiamen/ch10/g217r15653'
p244
aS'http://www.dianping.com/xiamen/ch10/g217r15652'
p245
aS'http://www.dianping.com/xiamen/ch10/g217r15655'
p246
aS'http://www.dianping.com/xiamen/ch10/g217r15654'
p247
aS'http://www.dianping.com/xiamen/ch10/g217r15656'
p248
aS'http://www.dianping.com/xiamen/ch10/g34246r25928'
p249
aS'http://www.dianping.com/xiamen/ch10/g4467r27090'
p250
aS'http://www.dianping.com/xiamen/ch10/g248r28273'
p251
aS'http://www.dianping.com/xiamen/ch10/g4469r1834'
p252
aS'http://www.dianping.com/xiamen/ch10/g207r28963'
p253
aS'http://www.dianping.com/xiamen/ch10/g207r28964'
p254
aS'http://www.dianping.com/xiamen/ch10/g4351r15649'
p255
aS'http://www.dianping.com/xiamen/ch10/g4597r1845'
p256
aS'http://www.dianping.com/xiamen/ch10/g4597r1843'
p257
aS'http://www.dianping.com/xiamen/ch10/g101r1844'
p258
aS'http://www.dianping.com/xiamen/ch10/g101r1845'
p259
aS'http://www.dianping.com/xiamen/ch10/g133r15649'
p260
aS'http://www.dianping.com/xiamen/ch10/g4477r88431'
p261
aS'http://www.dianping.com/xiamen/ch10/g222r27447'
p262
aS'http://www.dianping.com/xiamen/ch10/g205r70208'
p263
aS'http://www.dianping.com/xiamen/ch10/g208r28549'
p264
aS'http://www.dianping.com/xiamen/ch10/g27823r1843'
p265
aS'http://www.dianping.com/xiamen/ch10/g32730r28549'
p266
aS'http://www.dianping.com/xiamen/ch10/g27801r28961'
p267
aS'http://www.dianping.com/xiamen/ch10/g223r28963'
p268
aS'http://www.dianping.com/xiamen/ch10/g27801r28963'
p269
aS'http://www.dianping.com/xiamen/ch10/g27801r28965'
p270
aS'http://www.dianping.com/xiamen/ch10/g27801r28964'
p271
aS'http://www.dianping.com/xiamen/ch10/g223r28964'
p272
aS'http://www.dianping.com/xiamen/ch10/g247'
p273
aS'http://www.dianping.com/xiamen/ch10/g254r27447'
p274
aS'http://www.dianping.com/xiamen/ch10/g4469r28958'
p275
aS'http://www.dianping.com/xiamen/ch10/g4473r27464'
p276
aS'http://www.dianping.com/xiamen/ch10/g4473r8374'
p277
aS'http://www.dianping.com/xiamen/ch10/g25151r88415'
p278
aS'http://www.dianping.com/xiamen/ch10/g221r27054'
p279
aS'http://www.dianping.com/xiamen/ch10/g4473r8373'
p280
aS'http://www.dianping.com/xiamen/ch10/g24340r28959'
p281
aS'http://www.dianping.com/xiamen/ch10/g134r65208'
p282
aS'http://www.dianping.com/xiamen/ch10/g1881r11310'
p283
aS'http://www.dianping.com/xiamen/ch10/g27801r1839'
p284
aS'http://www.dianping.com/xiamen/ch10/g3027r25928'
p285
aS'http://www.dianping.com/xiamen/ch10/g1881r15650'
p286
aS'http://www.dianping.com/xiamen/ch10/g1881r15651'
p287
aS'http://www.dianping.com/xiamen/ch10/g1881r15652'
p288
aS'http://www.dianping.com/xiamen/ch10/g1881r15654'
p289
aS'http://www.dianping.com/xiamen/ch10/g1881r15655'
p290
aS'http://www.dianping.com/xiamen/ch10/g1881r15656'
p291
aS'http://www.dianping.com/xiamen/ch10/g27803r15655'
p292
aS'http://www.dianping.com/xiamen/ch10/g27803r15654'
p293
aS'http://www.dianping.com/xiamen/ch10/g4473r88412'
p294
aS'http://www.dianping.com/xiamen/ch10/g27803r15656'
p295
aS'http://www.dianping.com/xiamen/ch10/g27803r15651'
p296
aS'http://www.dianping.com/xiamen/ch10/g27803r15650'
p297
aS'http://www.dianping.com/xiamen/ch10/g3017r88415'
p298
aS'http://www.dianping.com/xiamen/ch10/g27803r15652'
p299
aS'http://www.dianping.com/xiamen/ch10/g4473r88418'
p300
aS'http://www.dianping.com/xiamen/ch10/g224r88417'
p301
aS'http://www.dianping.com/xiamen/ch10/g34245r27090'
p302
aS'http://www.dianping.com/xiamen/ch10/g252r88431'
p303
aS'http://www.dianping.com/xiamen/ch10/g252r88437'
p304
aS'http://www.dianping.com/xiamen/ch10/g217r28958'
p305
aS'http://www.dianping.com/xiamen/ch10/g217r28959'
p306
aS'http://www.dianping.com/xiamen/ch10/g33924r88407'
p307
aS'http://www.dianping.com/xiamen/ch10/g34278r88403'
p308
aS'http://www.dianping.com/xiamen/ch10/g34277r2008'
p309
aS'http://www.dianping.com/xiamen/ch10/g27801r1838'
p310
aS'http://www.dianping.com/xiamen/ch10/g33924r88403'
p311
aS'http://www.dianping.com/xiamen/ch10/g4467r27464'
p312
aS'http://www.dianping.com/xiamen/ch10/g34240r27447'
p313
aS'http://www.dianping.com/xiamen/ch10/g34278r88409'
p314
aS'http://www.dianping.com/xiamen/ch10/g34277r2007'
p315
aS'http://www.dianping.com/xiamen/ch10/g33924r88409'
p316
aS'http://www.dianping.com/xiamen/ch10/g4467r1832'
p317
aS'http://www.dianping.com/xiamen/ch10/g34245r27419'
p318
aS'http://www.dianping.com/xiamen/ch10/g4447r2007'
p319
aS'http://www.dianping.com/xiamen/ch10/g252r1837'
p320
aS'http://www.dianping.com/xiamen/ch10/g3243r8085'
p321
aS'http://www.dianping.com/xiamen/ch10/g3243r8087'
p322
aS'http://www.dianping.com/xiamen/ch10/g133r88421'
p323
aS'http://www.dianping.com/xiamen/ch10/g27823r28962'
p324
aS'http://www.dianping.com/xiamen/ch10/g134r28271'
p325
aS'http://www.dianping.com/xiamen/ch10/g109r8087'
p326
aS'http://www.dianping.com/xiamen/ch10/g4467r65208'
p327
aS'http://www.dianping.com/xiamen/ch10/g34065r88407'
p328
aS'http://www.dianping.com/xiamen/ch10/g134r28273'
p329
aS'http://www.dianping.com/xiamen/ch10/g3027r65208'
p330
aS'http://www.dianping.com/xiamen/ch10/g34237r1843'
p331
aS'http://www.dianping.com/xiamen/ch10/g34237r1842'
p332
aS'http://www.dianping.com/xiamen/ch10/g34237r1840'
p333
aS'http://www.dianping.com/xiamen/ch10/g34237r1847'
p334
aS'http://www.dianping.com/xiamen/ch10/g34237r1846'
p335
aS'http://www.dianping.com/xiamen/ch10/g34237r1845'
p336
aS'http://www.dianping.com/xiamen/ch10/g34237r1844'
p337
aS'http://www.dianping.com/xiamen/ch10/g34243r27447'
p338
aS'http://www.dianping.com/xiamen/ch10/g33924r8085'
p339
aS'http://www.dianping.com/xiamen/ch10/g34245r8085'
p340
aS'http://www.dianping.com/xiamen/ch10/g34245r8087'
p341
aS'http://www.dianping.com/xiamen/ch10/g34243r15656'
p342
aS'http://www.dianping.com/xiamen/ch10/g34243r15655'
p343
aS'http://www.dianping.com/xiamen/ch10/g34243r15654'
p344
aS'http://www.dianping.com/xiamen/ch10/g34243r15653'
p345
aS'http://www.dianping.com/xiamen/ch10/g34225r2007'
p346
aS'http://www.dianping.com/xiamen/ch10/g34243r15651'
p347
aS'http://www.dianping.com/xiamen/ch10/g34243r15650'
p348
aS'http://www.dianping.com/xiamen/ch10/g32731r1836'
p349
aS'http://www.dianping.com/xiamen/ch10/g34243r11310'
p350
aS'http://www.dianping.com/xiamen/ch10/g252r1831'
p351
aS'http://www.dianping.com/xiamen/ch10/g34241r25928'
p352
aS'http://www.dianping.com/xiamen/ch10/g252r28270'
p353
aS'http://www.dianping.com/xiamen/ch10/g252r28271'
p354
aS'http://www.dianping.com/xiamen/ch10/g34040r27090'
p355
aS'http://www.dianping.com/xiamen/ch10/g33924r27419'
p356
aS'http://www.dianping.com/xiamen/ch10/g34040r11310'
p357
aS'http://www.dianping.com/xiamen/ch10/g27803r27054'
p358
aS'http://www.dianping.com/xiamen/ch10/g4509r27464'
p359
aS'http://www.dianping.com/xiamen/ch10/g32723r88409'
p360
aS'http://www.dianping.com/xiamen/ch10/g133r88432'
p361
aS'http://www.dianping.com/xiamen/ch10/g133r88431'
p362
aS'http://www.dianping.com/xiamen/ch10/g133r88437'
p363
aS'http://www.dianping.com/xiamen/ch10/g1785r1844'
p364
aS'http://www.dianping.com/xiamen/ch10/g1785r1845'
p365
aS'http://www.dianping.com/xiamen/ch10/g1785r1847'
p366
aS'http://www.dianping.com/xiamen/ch10/g4509r15649'
p367
aS'http://www.dianping.com/xiamen/ch10/g1785r1842'
p368
aS'http://www.dianping.com/xiamen/ch10/g32731r1838'
p369
aS'http://www.dianping.com/xiamen/ch10/g1881r8087'
p370
aS'http://www.dianping.com/xiamen/ch10/g34060r28964'
p371
aS'http://www.dianping.com/xiamen/ch10/g1881r8085'
p372
aS'http://www.dianping.com/xiamen/ch10/g109r15651'
p373
aS'http://www.dianping.com/xiamen/ch10/g34245r25928'
p374
aS'http://www.dianping.com/xiamen/ch10/g34237r8373'
p375
aS'http://www.dianping.com/xiamen/ch10/g210r88409'
p376
aS'http://www.dianping.com/xiamen/ch10/g34237r8374'
p377
aS'http://www.dianping.com/xiamen/ch10/g34237r8375'
p378
aS'http://www.dianping.com/xiamen/ch10/g210r88405'
p379
aS'http://www.dianping.com/xiamen/ch10/g210r88404'
p380
aS'http://www.dianping.com/xiamen/ch10/g4509r88421'
p381
aS'http://www.dianping.com/xiamen/ch10/g4557r1844'
p382
aS'http://www.dianping.com/xiamen/ch10/g4557r1845'
p383
aS'http://www.dianping.com/xiamen/ch10/g210r88403'
p384
aS'http://www.dianping.com/xiamen/ch10/g4557r1847'
p385
aS'http://www.dianping.com/xiamen/ch10/g34243r28958'
p386
aS'http://www.dianping.com/xiamen/ch10/g34243r28959'
p387
aS'http://www.dianping.com/xiamen/ch10/g34279r8087'
p388
aS'http://www.dianping.com/xiamen/ch10/g4469r27090'
p389
aS'http://www.dianping.com/xiamen/ch10/g27803r65208'
p390
aS'http://www.dianping.com/xiamen/ch10/g205r88415'
p391
aS'http://www.dianping.com/xiamen/ch10/g4583r88431'
p392
aS'http://www.dianping.com/xiamen/ch10/g34060r1830'
p393
aS'http://www.dianping.com/xiamen/ch10/g34040r1840'
p394
aS'http://www.dianping.com/xiamen/ch10/g34040r1847'
p395
aS'http://www.dianping.com/xiamen/ch10/g34040r1846'
p396
aS'http://www.dianping.com/xiamen/ch10/g34040r1844'
p397
aS'http://www.dianping.com/xiamen/ch10/g4557r2007'
p398
aS'http://www.dianping.com/xiamen/ch10/g222r15655'
p399
aS'http://www.dianping.com/xiamen/ch10/g222r15654'
p400
aS'http://www.dianping.com/xiamen/ch10/g222r15656'
p401
aS'http://www.dianping.com/xiamen/ch10/g222r15651'
p402
aS'http://www.dianping.com/xiamen/ch10/g222r15650'
p403
aS'http://www.dianping.com/xiamen/ch10/g222r15652'
p404
aS'http://www.dianping.com/xiamen/ch10/g134r88437'
p405
aS'http://www.dianping.com/xiamen/ch10/g134r88431'
p406
aS'http://www.dianping.com/xiamen/ch10/g134r88432'
p407
aS'http://www.dianping.com/xiamen/ch10/g34278r28963'
p408
aS'http://www.dianping.com/xiamen/ch10/g4467r1842'
p409
aS'http://www.dianping.com/xiamen/ch10/g4467r1843'
p410
aS'http://www.dianping.com/xiamen/ch10/g4467r1844'
p411
aS'http://www.dianping.com/xiamen/ch10/g4467r1845'
p412
aS'http://www.dianping.com/xiamen/ch10/g4467r1846'
p413
aS'http://www.dianping.com/xiamen/ch10/g34065r15649'
p414
aS'http://www.dianping.com/xiamen/ch10/g207r1838'
p415
aS'http://www.dianping.com/xiamen/ch10/g207r1839'
p416
aS'http://www.dianping.com/xiamen/ch10/g105r28270'
p417
aS'http://www.dianping.com/xiamen/ch10/g134r15649'
p418
aS'http://www.dianping.com/xiamen/ch10/g207r1832'
p419
aS'http://www.dianping.com/xiamen/ch10/g4273r11310'
p420
aS'http://www.dianping.com/xiamen/ch10/g207r1830'
p421
aS'http://www.dianping.com/xiamen/ch10/g207r1831'
p422
aS'http://www.dianping.com/xiamen/ch10/g2887r88417'
p423
aS'http://www.dianping.com/xiamen/ch10/g207r1837'
p424
aS'http://www.dianping.com/xiamen/ch10/g207r1834'
p425
aS'http://www.dianping.com/xiamen/ch10/g207r1835'
p426
aS'http://www.dianping.com/xiamen/ch10/g241r65208'
p427
aS'http://www.dianping.com/xiamen/ch10/g101r28959'
p428
aS'http://www.dianping.com/xiamen/ch10/g4601r28549'
p429
aS'http://www.dianping.com/xiamen/ch10/g34061r28963'
p430
aS'http://www.dianping.com/xiamen/ch10/g226r28549'
p431
aS'http://www.dianping.com/xiamen/ch10/g1821r2008'
p432
aS'http://www.dianping.com/xiamen/ch10/g4453r88418'
p433
aS'http://www.dianping.com/xiamen/ch10/g210r88431'
p434
aS'http://www.dianping.com/xiamen/ch10/g34065r25928'
p435
aS'http://www.dianping.com/xiamen/ch10/g4467r2008'
p436
aS'http://www.dianping.com/xiamen/ch10/g34065r1840'
p437
aS'http://www.dianping.com/xiamen/ch10/g4453r88412'
p438
aS'http://www.dianping.com/xiamen/ch10/g1821r2007'
p439
aS'http://www.dianping.com/xiamen/ch10/g3023r8085'
p440
aS'http://www.dianping.com/xiamen/ch10/g3023r8087'
p441
aS'http://www.dianping.com/xiamen/ch10/g4273r28964'
p442
aS'http://www.dianping.com/xiamen/ch10/g252r1838'
p443
aS'http://www.dianping.com/xiamen/ch10/g27823r2007'
p444
aS'http://www.dianping.com/xiamen/ch10/g210r88435'
p445
aS'http://www.dianping.com/xiamen/ch10/g26483r27054'
p446
aS'http://www.dianping.com/xiamen/ch10/g210r28960'
p447
aS'http://www.dianping.com/xiamen/ch10/g210r28961'
p448
aS'http://www.dianping.com/xiamen/ch10/g210r28962'
p449
aS'http://www.dianping.com/xiamen/ch10/g210r28963'
p450
aS'http://www.dianping.com/xiamen/ch10/g210r28964'
p451
aS'http://www.dianping.com/xiamen/ch10/g210r28965'
p452
aS'http://www.dianping.com/xiamen/ch10/g4467r28270'
p453
aS'http://www.dianping.com/xiamen/ch10/g4467r28273'
p454
aS'http://www.dianping.com/xiamen/ch10/g4467r28272'
p455
aS'http://www.dianping.com/xiamen/ch10/g4467r28274'
p456
aS'http://www.dianping.com/xiamen/ch10/g34065r65208'
p457
aS'http://www.dianping.com/xiamen/ch10/g34245r28273'
p458
aS'http://www.dianping.com/xiamen/ch10/g34245r28272'
p459
aS'http://www.dianping.com/xiamen/ch10/g34245r28271'
p460
aS'http://www.dianping.com/xiamen/ch10/g34245r28270'
p461
aS'http://www.dianping.com/xiamen/ch10/g34245r28274'
p462
aS'http://www.dianping.com/xiamen/ch10/g34060r11310'
p463
aS'http://www.dianping.com/xiamen/ch10/g3023r28964'
p464
aS'http://www.dianping.com/xiamen/ch10/g27801r27464'
p465
aS'http://www.dianping.com/xiamen/ch10/g3023r28961'
p466
aS'http://www.dianping.com/xiamen/ch10/g3023r28963'
p467
aS'http://www.dianping.com/xiamen/ch10/g27803r1847'
p468
aS'http://www.dianping.com/xiamen/ch10/g27803r1844'
p469
aS'http://www.dianping.com/xiamen/ch10/g27803r88401'
p470
aS'http://www.dianping.com/xiamen/ch10/g34246r28959'
p471
aS'http://www.dianping.com/xiamen/ch10/g34246r28958'
p472
aS'http://www.dianping.com/xiamen/ch10/g27803r1840'
p473
aS'http://www.dianping.com/xiamen/ch10/g27803r88405'
p474
aS'http://www.dianping.com/xiamen/ch10/g27803r88409'
p475
aS'http://www.dianping.com/xiamen/ch10/g4453r28959'
p476
aS'http://www.dianping.com/xiamen/ch10/g221r27447'
p477
aS'http://www.dianping.com/xiamen/ch10/g252r88407'
p478
aS'http://www.dianping.com/xiamen/ch10/g238r88435'
p479
aS'http://www.dianping.com/xiamen/ch10/g238r88432'
p480
aS'http://www.dianping.com/xiamen/ch10/g1947r28549'
p481
aS'http://www.dianping.com/xiamen/ch10/g238r88431'
p482
aS'http://www.dianping.com/xiamen/ch10/g217r88437'
p483
aS'http://www.dianping.com/xiamen/ch10/g217r88435'
p484
aS'http://www.dianping.com/xiamen/ch10/g217r88432'
p485
aS'http://www.dianping.com/xiamen/ch10/g217r88431'
p486
aS'http://www.dianping.com/xiamen/ch10/g4473r88417'
p487
aS'http://www.dianping.com/xiamen/ch10/g105r2008'
p488
aS'http://www.dianping.com/xiamen/ch10/g133r1835'
p489
aS'http://www.dianping.com/xiamen/ch10/g105r2007'
p490
aS'http://www.dianping.com/xiamen/ch10/g34061r15652'
p491
aS'http://www.dianping.com/xiamen/ch10/g101r1839'
p492
aS'http://www.dianping.com/xiamen/ch10/g34243r25928'
p493
aS'http://www.dianping.com/xiamen/ch10/g241r8374'
p494
aS'http://www.dianping.com/xiamen/ch10/g241r8375'
p495
aS'http://www.dianping.com/xiamen/ch10/g101r1835'
p496
aS'http://www.dianping.com/xiamen/ch10/g4481r25928'
p497
aS'http://www.dianping.com/xiamen/ch10/g101r1836'
p498
aS'http://www.dianping.com/xiamen/ch10/g1805r28959'
p499
aS'http://www.dianping.com/xiamen/ch10/g33924r27090'
p500
aS'http://www.dianping.com/xiamen/ch10/g133r1833'
p501
aS'http://www.dianping.com/xiamen/ch10/g223r15650'
p502
aS'http://www.dianping.com/xiamen/ch10/g223r15652'
p503
aS'http://www.dianping.com/xiamen/ch10/g223r15654'
p504
aS'http://www.dianping.com/xiamen/ch10/g223r15655'
p505
aS'http://www.dianping.com/xiamen/ch10/g223r15656'
p506
aS'http://www.dianping.com/xiamen/ch10/g4557r8087'
p507
aS'http://www.dianping.com/xiamen/ch10/g4557r8085'
p508
aS'http://www.dianping.com/xiamen/ch10/g222r88403'
p509
aS'http://www.dianping.com/xiamen/ch10/g222r88401'
p510
aS'http://www.dianping.com/xiamen/ch10/g24340r65208'
p511
aS'http://www.dianping.com/xiamen/ch10/g222r88407'
p512
aS'http://www.dianping.com/xiamen/ch10/g222r88404'
p513
aS'http://www.dianping.com/xiamen/ch10/g222r88405'
p514
aS'http://www.dianping.com/xiamen/ch10/g208r8374'
p515
aS'http://www.dianping.com/xiamen/ch10/g2621r85846'
p516
aS'http://www.dianping.com/xiamen/ch10/g3233r88409'
p517
aS'http://www.dianping.com/xiamen/ch10/g34060r70208'
p518
aS'http://www.dianping.com/xiamen/ch10/g34240r27090'
p519
aS'http://www.dianping.com/xiamen/ch10/g34245r85846'
p520
aS'http://www.dianping.com/xiamen/ch10/g34245r88421'
p521
aS'http://www.dianping.com/xiamen/ch10/g24340r28964'
p522
aS'http://www.dianping.com/xiamen/ch10/g24340r28965'
p523
aS'http://www.dianping.com/xiamen/ch10/g4449r1831'
p524
aS'http://www.dianping.com/xiamen/ch10/g4449r1830'
p525
aS'http://www.dianping.com/xiamen/ch10/g4449r1833'
p526
aS'http://www.dianping.com/xiamen/ch10/g4449r1832'
p527
aS'http://www.dianping.com/xiamen/ch10/g4449r1835'
p528
aS'http://www.dianping.com/xiamen/ch10/g4449r1834'
p529
aS'http://www.dianping.com/xiamen/ch10/g4449r1837'
p530
aS'http://www.dianping.com/xiamen/ch10/g4449r1836'
p531
aS'http://www.dianping.com/xiamen/ch10/g4449r1839'
p532
aS'http://www.dianping.com/xiamen/ch10/g34246r27419'
p533
aS'http://www.dianping.com/xiamen/ch10/g254r28887'
p534
aS'http://www.dianping.com/xiamen/ch10/g4467r8085'
p535
aS'http://www.dianping.com/xiamen/ch10/g3017r88401'
p536
aS'http://www.dianping.com/xiamen/ch10/g1821r25928'
p537
aS'http://www.dianping.com/xiamen/ch10/g4583r25928'
p538
aS'http://www.dianping.com/xiamen/ch10/g252r88421'
p539
aS'http://www.dianping.com/xiamen/ch10/g3017r88409'
p540
aS'http://www.dianping.com/xiamen/ch10/g4469r11310'
p541
aS'http://www.dianping.com/xiamen/ch10/g34245r1833'
p542
aS'http://www.dianping.com/xiamen/ch10/g27803r27464'
p543
aS'http://www.dianping.com/xiamen/ch10/g217r2007'
p544
aS'http://www.dianping.com/xiamen/ch10/g4469r88435'
p545
aS'http://www.dianping.com/xiamen/ch10/g33924r88431'
p546
aS'http://www.dianping.com/xiamen/ch10/g34278r88418'
p547
aS'http://www.dianping.com/xiamen/ch10/g217r2008'
p548
aS'http://www.dianping.com/xiamen/ch10/g27823r8087'
p549
aS'http://www.dianping.com/xiamen/ch10/g222r27090'
p550
aS'http://www.dianping.com/xiamen/ch10/g241r88431'
p551
aS'http://www.dianping.com/xiamen/ch10/g205r2007'
p552
aS'http://www.dianping.com/xiamen/ch10/g4449r88431'
p553
aS'http://www.dianping.com/xiamen/ch10/g226r88418'
p554
aS'http://www.dianping.com/xiamen/ch10/g32733r28958'
p555
aS'http://www.dianping.com/xiamen/ch10/g226r88412'
p556
aS'http://www.dianping.com/xiamen/ch10/g225r1839'
p557
aS'http://www.dianping.com/xiamen/ch10/g4469r88415'
p558
aS'http://www.dianping.com/xiamen/ch10/g134r88404'
p559
aS'http://www.dianping.com/xiamen/ch10/g4601r8374'
p560
aS'http://www.dianping.com/xiamen/ch10/g217r28549'
p561
aS'http://www.dianping.com/xiamen/ch10/g34061r88409'
p562
aS'http://www.dianping.com/xiamen/ch10/g4593r65208'
p563
aS'http://www.dianping.com/xiamen/ch10/g4509r70208'
p564
aS'http://www.dianping.com/xiamen/ch10/g34241r15649'
p565
aS'http://www.dianping.com/xiamen/ch10/g3027r27090'
p566
aS'http://www.dianping.com/xiamen/ch10/g34226r28887'
p567
aS'http://www.dianping.com/xiamen/ch10/g32733r11310'
p568
aS'http://www.dianping.com/xiamen/ch10/g3017r2008'
p569
aS'http://www.dianping.com/xiamen/ch10/g34060r28887'
p570
aS'http://www.dianping.com/xiamen/ch10/g210r70175'
p571
aS'http://www.dianping.com/xiamen/ch10/g3017r2007'
p572
aS'http://www.dianping.com/xiamen/ch10/g4583r1839'
p573
aS'http://www.dianping.com/xiamen/ch10/g4583r1836'
p574
aS'http://www.dianping.com/xiamen/ch10/g4583r1837'
p575
aS'http://www.dianping.com/xiamen/ch10/g4583r1831'
p576
aS'http://www.dianping.com/xiamen/ch10/g4583r1833'
p577
aS'http://www.dianping.com/xiamen/ch10/g4509r15652'
p578
aS'http://www.dianping.com/xiamen/ch10/g4509r15650'
p579
aS'http://www.dianping.com/xiamen/ch10/g4509r15651'
p580
aS'http://www.dianping.com/xiamen/ch10/g4509r15656'
p581
aS'http://www.dianping.com/xiamen/ch10/g4509r15654'
p582
aS'http://www.dianping.com/xiamen/ch10/g4509r15655'
p583
aS'http://www.dianping.com/xiamen/ch10/g32733r8375'
p584
aS'http://www.dianping.com/xiamen/ch10/g32733r8374'
p585
aS'http://www.dianping.com/xiamen/ch10/g241r15650'
p586
aS'http://www.dianping.com/xiamen/ch10/g3023r2008'
p587
aS'http://www.dianping.com/xiamen/ch10/g3027r1837'
p588
aS'http://www.dianping.com/xiamen/ch10/g3023r2007'
p589
aS'http://www.dianping.com/xiamen/ch10/g226r11310'
p590
aS'http://www.dianping.com/xiamen/ch10/g225r8374'
p591
aS'http://www.dianping.com/xiamen/ch10/g34243r65208'
p592
aS'http://www.dianping.com/xiamen/ch10/g4467r28960'
p593
aS'http://www.dianping.com/xiamen/ch10/g221r1843'
p594
aS'http://www.dianping.com/xiamen/ch10/g221r1842'
p595
aS'http://www.dianping.com/xiamen/ch10/g210r88432'
p596
aS'http://www.dianping.com/xiamen/ch10/g221r1840'
p597
aS'http://www.dianping.com/xiamen/ch10/g221r1847'
p598
aS'http://www.dianping.com/xiamen/ch10/g221r1846'
p599
aS'http://www.dianping.com/xiamen/ch10/g221r1845'
p600
aS'http://www.dianping.com/xiamen/ch10/g4509r88437'
p601
aS'http://www.dianping.com/xiamen/ch10/g4473r8085'
p602
aS'http://www.dianping.com/xiamen/ch10/g1947r8087'
p603
aS'http://www.dianping.com/xiamen/ch10/g1947r8085'
p604
aS'http://www.dianping.com/xiamen/ch10/g252r28887'
p605
aS'http://www.dianping.com/xiamen/ch10/g221r2007'
p606
aS'http://www.dianping.com/xiamen/ch10/g221r2008'
p607
aS'http://www.dianping.com/xiamen/ch10/g134r88401'
p608
aS'http://www.dianping.com/xiamen/ch10/g134r88403'
p609
aS'http://www.dianping.com/xiamen/ch10/g225r1847'
p610
aS'http://www.dianping.com/xiamen/ch10/g134r88405'
p611
aS'http://www.dianping.com/xiamen/ch10/g134r88407'
p612
aS'http://www.dianping.com/xiamen/ch10/g34065r15655'
p613
aS'http://www.dianping.com/xiamen/ch10/g4447r25928'
p614
aS'http://www.dianping.com/xiamen/ch10/g205r88405'
p615
aS'http://www.dianping.com/xiamen/ch10/g205r88404'
p616
aS'http://www.dianping.com/xiamen/ch10/g34041r1846'
p617
aS'http://www.dianping.com/xiamen/ch10/g4583r27054'
p618
aS'http://www.dianping.com/xiamen/ch10/g34041r1840'
p619
aS'http://www.dianping.com/xiamen/ch10/g34041r1842'
p620
aS'http://www.dianping.com/xiamen/ch10/g109r25928'
p621
aS'http://www.dianping.com/xiamen/ch10/g133r27419'
p622
aS'http://www.dianping.com/xiamen/ch10/g222r28963'
p623
aS'http://www.dianping.com/xiamen/ch10/g222r28962'
p624
aS'http://www.dianping.com/xiamen/ch10/g222r28961'
p625
aS'http://www.dianping.com/xiamen/ch10/g222r28960'
p626
aS'http://www.dianping.com/xiamen/ch10/g222r28965'
p627
aS'http://www.dianping.com/xiamen/ch10/g222r28964'
p628
aS'http://www.dianping.com/xiamen/ch10/g27823r15654'
p629
aS'http://www.dianping.com/xiamen/ch10/g34245r28887'
p630
aS'http://www.dianping.com/xiamen/ch10/g34245r1839'
p631
aS'http://www.dianping.com/xiamen/ch10/g34243r28549'
p632
aS'http://www.dianping.com/xiamen/ch10/g25151r1843'
p633
aS'http://www.dianping.com/xiamen/ch10/g205r28272'
p634
aS'http://www.dianping.com/xiamen/ch10/g133r27090'
p635
aS'http://www.dianping.com/xiamen/ch10/g205r28270'
p636
aS'http://www.dianping.com/xiamen/ch10/g34279r15653'
p637
aS'http://www.dianping.com/xiamen/ch10/g3023r28887'
p638
aS'http://www.dianping.com/xiamen/ch10/g26482r88412'
p639
aS'http://www.dianping.com/xiamen/ch10/g34062r25928'
p640
aS'http://www.dianping.com/xiamen/ch10/g3023r28958'
p641
aS'http://www.dianping.com/xiamen/ch10/g34065r27090'
p642
aS'http://www.dianping.com/xiamen/ch10/g238r27464'
p643
aS'http://www.dianping.com/xiamen/ch10/g27803r1833'
p644
aS'http://www.dianping.com/xiamen/ch10/g27803r1832'
p645
aS'http://www.dianping.com/xiamen/ch10/g27803r88417'
p646
aS'http://www.dianping.com/xiamen/ch10/g27803r1830'
p647
aS'http://www.dianping.com/xiamen/ch10/g27803r1837'
p648
aS'http://www.dianping.com/xiamen/ch10/g27803r1836'
p649
aS'http://www.dianping.com/xiamen/ch10/g27803r1835'
p650
aS'http://www.dianping.com/xiamen/ch10/g27803r1834'
p651
aS'http://www.dianping.com/xiamen/ch10/g4453r15649'
p652
aS'http://www.dianping.com/xiamen/ch10/g134r28960'
p653
aS'http://www.dianping.com/xiamen/ch10/g27803r1839'
p654
aS'http://www.dianping.com/xiamen/ch10/g27803r1838'
p655
aS'http://www.dianping.com/xiamen/ch10/g105r88431'
p656
aS'http://www.dianping.com/xiamen/ch10/g134r28964'
p657
aS'http://www.dianping.com/xiamen/ch10/g3017r8087'
p658
aS'http://www.dianping.com/xiamen/ch10/g1821r28270'
p659
aS'http://www.dianping.com/xiamen/ch10/g27803r28274'
p660
aS'http://www.dianping.com/xiamen/ch10/g27803r28273'
p661
aS'http://www.dianping.com/xiamen/ch10/g27803r28272'
p662
aS'http://www.dianping.com/xiamen/ch10/g4453r28549'
p663
aS'http://www.dianping.com/xiamen/ch10/g4473r70208'
p664
aS'http://www.dianping.com/xiamen/ch10/g133r28271'
p665
aS'http://www.dianping.com/xiamen/ch10/g34226r1831'
p666
aS'http://www.dianping.com/xiamen/ch10/g210r30823'
p667
aS'http://www.dianping.com/xiamen/ch10/g101r11310'
p668
aS'http://www.dianping.com/xiamen/ch10/g1783'
p669
aS'http://www.dianping.com/xiamen/ch10/g34237r28960'
p670
aS'http://www.dianping.com/xiamen/ch10/g34237r28961'
p671
aS'http://www.dianping.com/xiamen/ch10/g34237r28962'
p672
aS'http://www.dianping.com/xiamen/ch10/g34237r28963'
p673
aS'http://www.dianping.com/xiamen/ch10/g34237r28964'
p674
aS'http://www.dianping.com/xiamen/ch10/g34237r28965'
p675
aS'http://www.dianping.com/xiamen/ch10/g217r27447'
p676
aS'http://www.dianping.com/xiamen/ch10/g217r70208'
p677
aS'http://www.dianping.com/xiamen/ch10/g1805r15650'
p678
aS'http://www.dianping.com/xiamen/ch10/g1881r27419'
p679
aS'http://www.dianping.com/xiamen/ch10/g32731r2007'
p680
aS'http://www.dianping.com/xiamen/ch10/g33924r88415'
p681
aS'http://www.dianping.com/xiamen/ch10/g252r8374'
p682
aS'http://www.dianping.com/xiamen/ch10/g222r27464'
p683
aS'http://www.dianping.com/xiamen/ch10/g32731r2008'
p684
aS'http://www.dianping.com/xiamen/ch10/g4477r15653'
p685
aS'http://www.dianping.com/xiamen/ch10/g217r11310'
p686
aS'http://www.dianping.com/xiamen/ch10/g226r1844'
p687
aS'http://www.dianping.com/xiamen/ch10/g4509r28270'
p688
aS'http://www.dianping.com/xiamen/ch10/g4509r28272'
p689
aS'http://www.dianping.com/xiamen/ch10/g4509r28273'
p690
aS'http://www.dianping.com/xiamen/ch10/g4509r28274'
p691
aS'http://www.dianping.com/xiamen/ch10/g208r28961'
p692
aS'http://www.dianping.com/xiamen/ch10/g2887r28272'
p693
aS'http://www.dianping.com/xiamen/ch10/g225r1836'
p694
aS'http://www.dianping.com/xiamen/ch10/g225r1835'
p695
aS'http://www.dianping.com/xiamen/ch10/g225r1832'
p696
aS'http://www.dianping.com/xiamen/ch10/g221r8085'
p697
aS'http://www.dianping.com/xiamen/ch10/g221r8087'
p698
aS'http://www.dianping.com/xiamen/ch10/g109r1846'
p699
aS'http://www.dianping.com/xiamen/ch10/g222r88412'
p700
aS'http://www.dianping.com/xiamen/ch10/g222r88415'
p701
aS'http://www.dianping.com/xiamen/ch10/g222r88417'
p702
aS'http://www.dianping.com/xiamen/ch10/g109r1843'
p703
aS'http://www.dianping.com/xiamen/ch10/g222r88418'
p704
aS'http://www.dianping.com/xiamen/ch10/g34040r28272'
p705
aS'http://www.dianping.com/xiamen/ch10/g4469r8085'
p706
aS'http://www.dianping.com/xiamen/ch10/g205r1834'
p707
aS'http://www.dianping.com/xiamen/ch10/g4469r8087'
p708
aS'http://www.dianping.com/xiamen/ch10/g254r27464'
p709
aS'http://www.dianping.com/xiamen/ch10/g3243r88407'
p710
aS'http://www.dianping.com/xiamen/ch10/g3027r15649'
p711
aS'http://www.dianping.com/xiamen/ch10/g134r1844'
p712
aS'http://www.dianping.com/xiamen/ch10/g207r88437'
p713
aS'http://www.dianping.com/xiamen/ch10/g223r15649'
p714
aS'http://www.dianping.com/xiamen/ch10/g34245r88431'
p715
aS'http://www.dianping.com/xiamen/ch10/g34245r88437'
p716
aS'http://www.dianping.com/xiamen/ch10/g34245r88435'
p717
aS'http://www.dianping.com/xiamen/ch10/g32726r1839'
p718
aS'http://www.dianping.com/xiamen/ch10/g34241r27419'
p719
aS'http://www.dianping.com/xiamen/ch10/g3017r88435'
p720
aS'http://www.dianping.com/xiamen/ch10/g34237r28549'
p721
aS'http://www.dianping.com/xiamen/ch10/g3017r88431'
p722
aS'http://www.dianping.com/xiamen/ch10/g254r65208'
p723
aS'http://www.dianping.com/xiamen/ch10/g3017r88432'
p724
aS'http://www.dianping.com/xiamen/ch10/g252r88415'
p725
aS'http://www.dianping.com/xiamen/ch10/g27801r8373'
p726
aS'http://www.dianping.com/xiamen/ch10/g252r88417'
p727
aS'http://www.dianping.com/xiamen/ch10/g27801r8375'
p728
aS'http://www.dianping.com/xiamen/ch10/g27801r8374'
p729
aS'http://www.dianping.com/xiamen/ch10/g252r88412'
p730
aS'http://www.dianping.com/xiamen/ch10/g132'
p731
aS'http://www.dianping.com/xiamen/ch10/g252r88418'
p732
aS'http://www.dianping.com/xiamen/ch10/g3095r15649'
p733
aS'http://www.dianping.com/xiamen/ch10/g32733r28549'
p734
aS'http://www.dianping.com/xiamen/ch10/g34237r30823'
p735
aS'http://www.dianping.com/xiamen/ch10/g33924r88421'
p736
aS'http://www.dianping.com/xiamen/ch10/g134r28270'
p737
aS'http://www.dianping.com/xiamen/ch10/g223r1838'
p738
aS'http://www.dianping.com/xiamen/ch10/g223r1839'
p739
aS'http://www.dianping.com/xiamen/ch10/g34279r1847'
p740
aS'http://www.dianping.com/xiamen/ch10/g24340r2007'
p741
aS'http://www.dianping.com/xiamen/ch10/g241r88421'
p742
aS'http://www.dianping.com/xiamen/ch10/g34279r1840'
p743
aS'http://www.dianping.com/xiamen/ch10/g205r11310'
p744
aS'http://www.dianping.com/xiamen/ch10/g223r1830'
p745
aS'http://www.dianping.com/xiamen/ch10/g223r1831'
p746
aS'http://www.dianping.com/xiamen/ch10/g223r1832'
p747
aS'http://www.dianping.com/xiamen/ch10/g101r15652'
p748
aS'http://www.dianping.com/xiamen/ch10/g24340r2008'
p749
aS'http://www.dianping.com/xiamen/ch10/g32730r15656'
p750
aS'http://www.dianping.com/xiamen/ch10/g223r1837'
p751
aS'http://www.dianping.com/xiamen/ch10/g238r1830'
p752
aS'http://www.dianping.com/xiamen/ch10/g238r1831'
p753
aS'http://www.dianping.com/xiamen/ch10/g238r1832'
p754
aS'http://www.dianping.com/xiamen/ch10/g238r1833'
p755
aS'http://www.dianping.com/xiamen/ch10/g238r1834'
p756
aS'http://www.dianping.com/xiamen/ch10/g238r1835'
p757
aS'http://www.dianping.com/xiamen/ch10/g238r1836'
p758
aS'http://www.dianping.com/xiamen/ch10/g238r1837'
p759
aS'http://www.dianping.com/xiamen/ch10/g238r1838'
p760
aS'http://www.dianping.com/xiamen/ch10/g238r1839'
p761
aS'http://www.dianping.com/xiamen/ch10/g4557r11310'
p762
aS'http://www.dianping.com/xiamen/ch10/g27801r8087'
p763
aS'http://www.dianping.com/xiamen/ch10/g27801r8085'
p764
aS'http://www.dianping.com/xiamen/ch10/g101r15651'
p765
aS'http://www.dianping.com/xiamen/ch10/g4469r88401'
p766
aS'http://www.dianping.com/xiamen/ch10/g34063r8374'
p767
aS'http://www.dianping.com/xiamen/ch10/g34246r65208'
p768
aS'http://www.dianping.com/xiamen/ch10/g34243r70208'
p769
aS'http://www.dianping.com/xiamen/ch10/g208r2008'
p770
aS'http://www.dianping.com/xiamen/ch10/g34243r27464'
p771
aS'http://www.dianping.com/xiamen/ch10/g34060r88412'
p772
aS'http://www.dianping.com/xiamen/ch10/g34061r88412'
p773
aS'http://www.dianping.com/xiamen/ch10/g34241r15655'
p774
aS'http://www.dianping.com/xiamen/ch10/g34241r15654'
p775
aS'http://www.dianping.com/xiamen/ch10/g34245r27054'
p776
aS'http://www.dianping.com/xiamen/ch10/g34241r15650'
p777
aS'http://www.dianping.com/xiamen/ch10/g3243r8374'
p778
aS'http://www.dianping.com/xiamen/ch10/g3243r8375'
p779
aS'http://www.dianping.com/xiamen/ch10/g27823r8085'
p780
aS'http://www.dianping.com/xiamen/ch10/g1881r88437'
p781
aS'http://www.dianping.com/xiamen/ch10/g3023r70208'
p782
aS'http://www.dianping.com/xiamen/ch10/g4449r11310'
p783
aS'http://www.dianping.com/xiamen/ch10/g4467r88417'
p784
aS'http://www.dianping.com/xiamen/ch10/g4509r27447'
p785
aS'http://www.dianping.com/xiamen/ch10/g4467r88415'
p786
aS'http://www.dianping.com/xiamen/ch10/g3023r28549'
p787
aS'http://www.dianping.com/xiamen/ch10/g4467r88412'
p788
aS'http://www.dianping.com/xiamen/ch10/g222r30823'
p789
aS'http://www.dianping.com/xiamen/ch10/g133r11310'
p790
aS'http://www.dianping.com/xiamen/ch10/g34279r28549'
p791
aS'http://www.dianping.com/xiamen/ch10/g34061r8375'
p792
aS'http://www.dianping.com/xiamen/ch10/g3027r2008'
p793
aS'http://www.dianping.com/xiamen/ch10/g3027r2007'
p794
aS'http://www.dianping.com/xiamen/ch10/g34245r1830'
p795
aS'http://www.dianping.com/xiamen/ch10/g4481r88415'
p796
aS'http://www.dianping.com/xiamen/ch10/g4509r88405'
p797
aS'http://www.dianping.com/xiamen/ch10/g4509r88404'
p798
aS'http://www.dianping.com/xiamen/ch10/g4509r88407'
p799
aS'http://www.dianping.com/xiamen/ch10/g4509r88401'
p800
aS'http://www.dianping.com/xiamen/ch10/g210r88421'
p801
aS'http://www.dianping.com/xiamen/ch10/g224r88435'
p802
aS'http://www.dianping.com/xiamen/ch10/g4509r88409'
p803
aS'http://www.dianping.com/xiamen/ch10/g205r27090'
p804
aS'http://www.dianping.com/xiamen/ch10/g252r15653'
p805
aS'http://www.dianping.com/xiamen/ch10/g241r1844'
p806
aS'http://www.dianping.com/xiamen/ch10/g241r1847'
p807
aS'http://www.dianping.com/xiamen/ch10/g241r1846'
p808
aS'http://www.dianping.com/xiamen/ch10/g133r88418'
p809
aS'http://www.dianping.com/xiamen/ch10/g241r1840'
p810
aS'http://www.dianping.com/xiamen/ch10/g4273r1830'
p811
aS'http://www.dianping.com/xiamen/ch10/g133r88415'
p812
aS'http://www.dianping.com/xiamen/ch10/g1821r65208'
p813
aS'http://www.dianping.com/xiamen/ch10/g210r15655'
p814
aS'http://www.dianping.com/xiamen/ch10/g4273r1838'
p815
aS'http://www.dianping.com/xiamen/ch10/g4273r1839'
p816
aS'http://www.dianping.com/xiamen/ch10/g238r65208'
p817
aS'http://www.dianping.com/xiamen/ch10/g34278r28549'
p818
aS'http://www.dianping.com/xiamen/ch10/g1947r15656'
p819
aS'http://www.dianping.com/xiamen/ch10/g1947r15655'
p820
aS'http://www.dianping.com/xiamen/ch10/g1947r15652'
p821
aS'http://www.dianping.com/xiamen/ch10/g3027r88432'
p822
aS'http://www.dianping.com/xiamen/ch10/g2621r1833'
p823
aS'http://www.dianping.com/xiamen/ch10/g2621r1832'
p824
aS'http://www.dianping.com/xiamen/ch10/g2621r1831'
p825
aS'http://www.dianping.com/xiamen/ch10/g2621r1830'
p826
aS'http://www.dianping.com/xiamen/ch10/g2621r1837'
p827
aS'http://www.dianping.com/xiamen/ch10/g2621r1836'
p828
aS'http://www.dianping.com/xiamen/ch10/g2621r1835'
p829
aS'http://www.dianping.com/xiamen/ch10/g2621r1834'
p830
aS'http://www.dianping.com/xiamen/ch10/g224r8375'
p831
aS'http://www.dianping.com/xiamen/ch10/g2621r1839'
p832
aS'http://www.dianping.com/xiamen/ch10/g2621r1838'
p833
aS'http://www.dianping.com/xiamen/ch10/g224r8374'
p834
aS'http://www.dianping.com/xiamen/ch10/g205r1847'
p835
aS'http://www.dianping.com/xiamen/ch10/g205r1846'
p836
aS'http://www.dianping.com/xiamen/ch10/g205r1840'
p837
aS'http://www.dianping.com/xiamen/ch10/g205r1843'
p838
aS'http://www.dianping.com/xiamen/ch10/g1821r28887'
p839
aS'http://www.dianping.com/xiamen/ch10/g4477r27447'
p840
aS'http://www.dianping.com/xiamen/ch10/g217r25928'
p841
aS'http://www.dianping.com/xiamen/ch10/g34237r15652'
p842
aS'http://www.dianping.com/xiamen/ch10/g34237r15653'
p843
aS'http://www.dianping.com/xiamen/ch10/g34237r15650'
p844
aS'http://www.dianping.com/xiamen/ch10/g34237r15651'
p845
aS'http://www.dianping.com/xiamen/ch10/g34237r15656'
p846
aS'http://www.dianping.com/xiamen/ch10/g34237r15654'
p847
aS'http://www.dianping.com/xiamen/ch10/g34237r15655'
p848
aS'http://www.dianping.com/xiamen/ch10/g254r28270'
p849
aS'http://www.dianping.com/xiamen/ch10/g254r28272'
p850
aS'http://www.dianping.com/xiamen/ch10/g254r28274'
p851
aS'http://www.dianping.com/xiamen/ch10/g32723r2008'
p852
aS'http://www.dianping.com/xiamen/ch10/g252r25928'
p853
aS'http://www.dianping.com/xiamen/ch10/g32723r2007'
p854
aS'http://www.dianping.com/xiamen/ch10/g101r15649'
p855
aS'http://www.dianping.com/xiamen/ch10/g34277r28270'
p856
aS'http://www.dianping.com/xiamen/ch10/g4467r15652'
p857
aS'http://www.dianping.com/xiamen/ch10/g34277r28272'
p858
aS'http://www.dianping.com/xiamen/ch10/g3023r1835'
p859
aS'http://www.dianping.com/xiamen/ch10/g4467r15656'
p860
aS'http://www.dianping.com/xiamen/ch10/g4467r15655'
p861
aS'http://www.dianping.com/xiamen/ch10/g4467r15654'
p862
aS'http://www.dianping.com/xiamen/ch10/g4469r2007'
p863
aS'http://www.dianping.com/xiamen/ch10/g134r88415'
p864
aS'http://www.dianping.com/xiamen/ch10/g2621r27464'
p865
aS'http://www.dianping.com/xiamen/ch10/g134r88412'
p866
aS'http://www.dianping.com/xiamen/ch10/g133r27464'
p867
aS'http://www.dianping.com/xiamen/ch10/g224r85846'
p868
aS'http://www.dianping.com/xiamen/ch10/g3023r70523'
p869
aS'http://www.dianping.com/xiamen/ch10/g33924r65208'
p870
aS'http://www.dianping.com/xiamen/ch10/g203r8374'
p871
aS'http://www.dianping.com/xiamen/ch10/g27803r88415'
p872
aS'http://www.dianping.com/xiamen/ch10/g34279r15649'
p873
aS'http://www.dianping.com/xiamen/ch10/g4583r28549'
p874
aS'http://www.dianping.com/xiamen/ch10/g4481r15650'
p875
aS'http://www.dianping.com/xiamen/ch10/g210r88437'
p876
aS'http://www.dianping.com/xiamen/ch10/g4467r25928'
p877
aS'http://www.dianping.com/xiamen/ch10/g34040r88417'
p878
aS'http://www.dianping.com/xiamen/ch10/g254r1832'
p879
aS'http://www.dianping.com/xiamen/ch10/g33924r1835'
p880
aS'http://www.dianping.com/xiamen/ch10/g4453r15656'
p881
aS'http://www.dianping.com/xiamen/ch10/g4453r15654'
p882
aS'http://www.dianping.com/xiamen/ch10/g4453r15655'
p883
aS'http://www.dianping.com/xiamen/ch10/g4453r15652'
p884
aS'http://www.dianping.com/xiamen/ch10/g4453r15653'
p885
aS'http://www.dianping.com/xiamen/ch10/g4453r15650'
p886
aS'http://www.dianping.com/xiamen/ch10/g4453r15651'
p887
aS'http://www.dianping.com/xiamen/ch10/g34243r1844'
p888
aS'http://www.dianping.com/xiamen/ch10/g34243r1845'
p889
aS'http://www.dianping.com/xiamen/ch10/g34243r1846'
p890
aS'http://www.dianping.com/xiamen/ch10/g34243r1847'
p891
aS'http://www.dianping.com/xiamen/ch10/g34243r1840'
p892
aS'http://www.dianping.com/xiamen/ch10/g34243r1842'
p893
aS'http://www.dianping.com/xiamen/ch10/g34243r1843'
p894
aS'http://www.dianping.com/xiamen/ch10/g33924r1830'
p895
aS'http://www.dianping.com/xiamen/ch10/g134r28959'
p896
aS'http://www.dianping.com/xiamen/ch10/g33924r1831'
p897
aS'http://www.dianping.com/xiamen/ch10/g134r28962'
p898
aS'http://www.dianping.com/xiamen/ch10/g221r27464'
p899
aS'http://www.dianping.com/xiamen/ch10/g33924r1832'
p900
aS'http://www.dianping.com/xiamen/ch10/g34240r11310'
p901
aS'http://www.dianping.com/xiamen/ch10/g33924r1833'
p902
aS'http://www.dianping.com/xiamen/ch10/g238r88412'
p903
aS'http://www.dianping.com/xiamen/ch10/g238r88415'
p904
aS'http://www.dianping.com/xiamen/ch10/g238r88417'
p905
aS'http://www.dianping.com/xiamen/ch10/g238r88418'
p906
aS'http://www.dianping.com/xiamen/ch10/g4447r28549'
p907
aS'http://www.dianping.com/xiamen/ch10/g34240r70208'
p908
aS'http://www.dianping.com/xiamen/ch10/g1453r8085'
p909
aS'http://www.dianping.com/xiamen/ch10/g33924r70185'
p910
aS'http://www.dianping.com/xiamen/ch10/g27801r88401'
p911
aS'http://www.dianping.com/xiamen/ch10/g27801r88403'
p912
aS'http://www.dianping.com/xiamen/ch10/g27801r88404'
p913
aS'http://www.dianping.com/xiamen/ch10/g27801r88405'
p914
aS'http://www.dianping.com/xiamen/ch10/g221r65208'
p915
aS'http://www.dianping.com/xiamen/ch10/g27801r88407'
p916
aS'http://www.dianping.com/xiamen/ch10/g226r28960'
p917
aS'http://www.dianping.com/xiamen/ch10/g34223r1838'
p918
aS'http://www.dianping.com/xiamen/ch10/g27823r27054'
p919
aS'http://www.dianping.com/xiamen/ch10/g225r27090'
p920
aS'http://www.dianping.com/xiamen/ch10/g222r27419'
p921
aS'http://www.dianping.com/xiamen/ch10/g208r8087'
p922
aS'http://www.dianping.com/xiamen/ch10/g27803r28270'
p923
aS'http://www.dianping.com/xiamen/ch10/g224r8087'
p924
aS'http://www.dianping.com/xiamen/ch10/g224r8085'
p925
aS'http://www.dianping.com/xiamen/ch10/g27803r11310'
p926
aS'http://www.dianping.com/xiamen/ch10/g222r88421'
p927
aS'http://www.dianping.com/xiamen/ch10/g34245r2007'
p928
aS'http://www.dianping.com/xiamen/ch10/g109r1830'
p929
aS'http://www.dianping.com/xiamen/ch10/g109r1833'
p930
aS'http://www.dianping.com/xiamen/ch10/g109r1832'
p931
aS'http://www.dianping.com/xiamen/ch10/g109r1835'
p932
aS'http://www.dianping.com/xiamen/ch10/g109r1834'
p933
aS'http://www.dianping.com/xiamen/ch10/g109r1837'
p934
aS'http://www.dianping.com/xiamen/ch10/g109r1836'
p935
aS'http://www.dianping.com/xiamen/ch10/g109r1839'
p936
aS'http://www.dianping.com/xiamen/ch10/g109r1838'
p937
aS'http://www.dianping.com/xiamen/ch10/g34065r8085'
p938
aS'http://www.dianping.com/xiamen/ch10/g241r8087'
p939
aS'http://www.dianping.com/xiamen/ch10/g34065r8087'
p940
aS'http://www.dianping.com/xiamen/ch10/g34245r2008'
p941
aS'http://www.dianping.com/xiamen/ch10/g3243r88415'
p942
aS'http://www.dianping.com/xiamen/ch10/g3243r88412'
p943
aS'http://www.dianping.com/xiamen/ch10/g27823r25928'
p944
aS'http://www.dianping.com/xiamen/ch10/g217r65208'
p945
aS'http://www.dianping.com/xiamen/ch10/g224r70208'
p946
aS'http://www.dianping.com/xiamen/ch10/g3027r15656'
p947
aS'http://www.dianping.com/xiamen/ch10/g34234r15654'
p948
aS'http://www.dianping.com/xiamen/ch10/g222r8375'
p949
aS'http://www.dianping.com/xiamen/ch10/g222r8374'
p950
aS'http://www.dianping.com/xiamen/ch10/g222r8373'
p951
aS'http://www.dianping.com/xiamen/ch10/g3027r15650'
p952
aS'http://www.dianping.com/xiamen/ch10/g34245r88409'
p953
aS'http://www.dianping.com/xiamen/ch10/g34245r88407'
p954
aS'http://www.dianping.com/xiamen/ch10/g34245r88404'
p955
aS'http://www.dianping.com/xiamen/ch10/g34245r88405'
p956
aS'http://www.dianping.com/xiamen/ch10/g34245r88403'
p957
aS'http://www.dianping.com/xiamen/ch10/g34245r88401'
p958
aS'http://www.dianping.com/xiamen/ch10/g224r25928'
p959
aS'http://www.dianping.com/xiamen/ch10/g3023r1832'
p960
aS'http://www.dianping.com/xiamen/ch10/g34240r28272'
p961
aS'http://www.dianping.com/xiamen/ch10/g34240r28273'
p962
aS'http://www.dianping.com/xiamen/ch10/g217r28965'
p963
aS'http://www.dianping.com/xiamen/ch10/g217r28964'
p964
aS'http://www.dianping.com/xiamen/ch10/g217r28963'
p965
aS'http://www.dianping.com/xiamen/ch10/g217r28962'
p966
aS'http://www.dianping.com/xiamen/ch10/g217r28961'
p967
aS'http://www.dianping.com/xiamen/ch10/g217r28960'
p968
aS'http://www.dianping.com/xiamen/ch10/g252r88403'
p969
aS'http://www.dianping.com/xiamen/ch10/g252r88401'
p970
aS'http://www.dianping.com/xiamen/ch10/g32733r2007'
p971
aS'http://www.dianping.com/xiamen/ch10/g252r88405'
p972
aS'http://www.dianping.com/xiamen/ch10/g33924r27054'
p973
aS'http://www.dianping.com/xiamen/ch10/g205r8374'
p974
aS'http://www.dianping.com/xiamen/ch10/g252r88409'
p975
aS'http://www.dianping.com/xiamen/ch10/g32733r2008'
p976
aS'http://www.dianping.com/xiamen/ch10/g225r28270'
p977
aS'http://www.dianping.com/xiamen/ch10/g2621r88421'
p978
aS'http://www.dianping.com/xiamen/ch10/g34278r15653'
p979
aS'http://www.dianping.com/xiamen/ch10/g27803r27447'
p980
aS'http://www.dianping.com/xiamen/ch10/g32731r70208'
p981
aS'http://www.dianping.com/xiamen/ch10/g241r88412'
p982
aS'http://www.dianping.com/xiamen/ch10/g34225r27090'
p983
aS'http://www.dianping.com/xiamen/ch10/g241r88417'
p984
aS'http://www.dianping.com/xiamen/ch10/g4273r8374'
p985
aS'http://www.dianping.com/xiamen/ch10/g4509r27054'
p986
aS'http://www.dianping.com/xiamen/ch10/g34245r27464'
p987
aS'http://www.dianping.com/xiamen/ch10/g34040r1832'
p988
aS'http://www.dianping.com/xiamen/ch10/g4583r8374'
p989
aS'http://www.dianping.com/xiamen/ch10/g208r27090'
p990
aS'http://www.dianping.com/xiamen/ch10/g2621r28549'
p991
aS'http://www.dianping.com/xiamen/ch10/g4509r8373'
p992
aS'http://www.dianping.com/xiamen/ch10/g4509r8374'
p993
aS'http://www.dianping.com/xiamen/ch10/g4509r8375'
p994
aS'http://www.dianping.com/xiamen/ch10/g34245r11310'
p995
aS'http://www.dianping.com/xiamen/ch10/g207r28272'
p996
aS'http://www.dianping.com/xiamen/ch10/g254r27090'
p997
aS'http://www.dianping.com/xiamen/ch10/g34060r88409'
p998
aS'http://www.dianping.com/xiamen/ch10/g1785r88401'
p999
aS'http://www.dianping.com/xiamen/ch10/g3023r27464'
p1000
aS'http://www.dianping.com/xiamen/ch10/g34277r27054'
p1001
aS'http://www.dianping.com/xiamen/ch10/g34060r88403'
p1002
aS'http://www.dianping.com/xiamen/ch10/g1785r88403'
p1003
aS'http://www.dianping.com/xiamen/ch10/g1785r15656'
p1004
aS'http://www.dianping.com/xiamen/ch10/g208r28963'
p1005
aS'http://www.dianping.com/xiamen/ch10/g1785r88404'
p1006
aS'http://www.dianping.com/xiamen/ch10/g1785r15655'
p1007
aS'http://www.dianping.com/xiamen/ch10/g1785r15654'
p1008
aS'http://www.dianping.com/xiamen/ch10/g1881r28272'
p1009
aS'http://www.dianping.com/xiamen/ch10/g1881r28273'
p1010
aS'http://www.dianping.com/xiamen/ch10/g1881r28270'
p1011
aS'http://www.dianping.com/xiamen/ch10/g221r28887'
p1012
aS'http://www.dianping.com/xiamen/ch10/g1785r88407'
p1013
aS'http://www.dianping.com/xiamen/ch10/g4467r88404'
p1014
aS'http://www.dianping.com/xiamen/ch10/g4467r88407'
p1015
aS'http://www.dianping.com/xiamen/ch10/g4467r88401'
p1016
aS'http://www.dianping.com/xiamen/ch10/g4467r88403'
p1017
aS'http://www.dianping.com/xiamen/ch10/g1947r1837'
p1018
aS'http://www.dianping.com/xiamen/ch10/g1947r1836'
p1019
aS'http://www.dianping.com/xiamen/ch10/g1947r1831'
p1020
aS'http://www.dianping.com/xiamen/ch10/g1947r1833'
p1021
aS'http://www.dianping.com/xiamen/ch10/g34224r15655'
p1022
aS'http://www.dianping.com/xiamen/ch10/g221r28270'
p1023
aS'http://www.dianping.com/xiamen/ch10/g221r28272'
p1024
aS'http://www.dianping.com/xiamen/ch10/g221r28273'
p1025
aS'http://www.dianping.com/xiamen/ch10/g4481r1843'
p1026
aS'http://www.dianping.com/xiamen/ch10/g105r8087'
p1027
aS'http://www.dianping.com/xiamen/ch10/g4481r88405'
p1028
aS'http://www.dianping.com/xiamen/ch10/g4473r11310'
p1029
aS'http://www.dianping.com/xiamen/ch10/g4469r27447'
p1030
aS'http://www.dianping.com/xiamen/ch10/g32730r15650'
p1031
aS'http://www.dianping.com/xiamen/ch10/g4509r88412'
p1032
aS'http://www.dianping.com/xiamen/ch10/g4557r1830'
p1033
aS'http://www.dianping.com/xiamen/ch10/g4557r1833'
p1034
aS'http://www.dianping.com/xiamen/ch10/g4557r1832'
p1035
aS'http://www.dianping.com/xiamen/ch10/g4557r1835'
p1036
aS'http://www.dianping.com/xiamen/ch10/g4557r1834'
p1037
aS'http://www.dianping.com/xiamen/ch10/g4557r1837'
p1038
aS'http://www.dianping.com/xiamen/ch10/g4509r88415'
p1039
aS'http://www.dianping.com/xiamen/ch10/g4557r1839'
p1040
aS'http://www.dianping.com/xiamen/ch10/g4557r1838'
p1041
aS'http://www.dianping.com/xiamen/ch10/g4509r88418'
p1042
aS'http://www.dianping.com/xiamen/ch10/g1947r8374'
p1043
aS'http://www.dianping.com/xiamen/ch10/g133r88409'
p1044
aS'http://www.dianping.com/xiamen/ch10/g27823r88405'
p1045
aS'http://www.dianping.com/xiamen/ch10/g1947r8373'
p1046
aS'http://www.dianping.com/xiamen/ch10/g27823r88407'
p1047
aS'http://www.dianping.com/xiamen/ch10/g133r88403'
p1048
aS'http://www.dianping.com/xiamen/ch10/g133r88407'
p1049
aS'http://www.dianping.com/xiamen/ch10/g133r88405'
p1050
aS'http://www.dianping.com/xiamen/ch10/g133r88404'
p1051
aS'http://www.dianping.com/xiamen/ch10/g34243r28961'
p1052
aS'http://www.dianping.com/xiamen/ch10/g34243r28960'
p1053
aS'http://www.dianping.com/xiamen/ch10/g34243r28963'
p1054
aS'http://www.dianping.com/xiamen/ch10/g34243r28962'
p1055
aS'http://www.dianping.com/xiamen/ch10/g34243r28965'
p1056
aS'http://www.dianping.com/xiamen/ch10/g34243r28964'
p1057
aS'http://www.dianping.com/xiamen/ch10/g34245r64735'
p1058
aS'http://www.dianping.com/xiamen/ch10/g4473r8087'
p1059
aS'http://www.dianping.com/xiamen/ch10/g34060r88431'
p1060
aS'http://www.dianping.com/xiamen/ch10/g27803r70185'
p1061
aS'http://www.dianping.com/xiamen/ch10/g241r2007'
p1062
aS'http://www.dianping.com/xiamen/ch10/g4449r27054'
p1063
aS'http://www.dianping.com/xiamen/ch10/g4601r65208'
p1064
aS'http://www.dianping.com/xiamen/ch10/g4467r1831'
p1065
aS'http://www.dianping.com/xiamen/ch10/g4467r1830'
p1066
aS'http://www.dianping.com/xiamen/ch10/g4467r1833'
p1067
aS'http://www.dianping.com/xiamen/ch10/g34062r1835'
p1068
aS'http://www.dianping.com/xiamen/ch10/g4467r1835'
p1069
aS'http://www.dianping.com/xiamen/ch10/g4467r1834'
p1070
aS'http://www.dianping.com/xiamen/ch10/g4467r1837'
p1071
aS'http://www.dianping.com/xiamen/ch10/g4467r1836'
p1072
aS'http://www.dianping.com/xiamen/ch10/g254r1843'
p1073
aS'http://www.dianping.com/xiamen/ch10/g254r1842'
p1074
aS'http://www.dianping.com/xiamen/ch10/g254r1840'
p1075
aS'http://www.dianping.com/xiamen/ch10/g254r1847'
p1076
aS'http://www.dianping.com/xiamen/ch10/g254r1846'
p1077
aS'http://www.dianping.com/xiamen/ch10/g254r1845'
p1078
aS'http://www.dianping.com/xiamen/ch10/g254r1844'
p1079
aS'http://www.dianping.com/xiamen/ch10/g210r88407'
p1080
aS'http://www.dianping.com/xiamen/ch10/g226r88421'
p1081
aS'http://www.dianping.com/xiamen/ch10/g34237r15649'
p1082
aS'http://www.dianping.com/xiamen/ch10/g4273r28549'
p1083
aS'http://www.dianping.com/xiamen/ch10/g2621r28963'
p1084
aS'http://www.dianping.com/xiamen/ch10/g2621r28960'
p1085
aS'http://www.dianping.com/xiamen/ch10/g2621r28965'
p1086
aS'http://www.dianping.com/xiamen/ch10/g27801r1835'
p1087
aS'http://www.dianping.com/xiamen/ch10/g27801r1834'
p1088
aS'http://www.dianping.com/xiamen/ch10/g27801r1837'
p1089
aS'http://www.dianping.com/xiamen/ch10/g27801r1836'
p1090
aS'http://www.dianping.com/xiamen/ch10/g27801r1830'
p1091
aS'http://www.dianping.com/xiamen/ch10/g27801r1833'
p1092
aS'http://www.dianping.com/xiamen/ch10/g27801r1832'
p1093
aS'http://www.dianping.com/xiamen/ch10/g238r15650'
p1094
aS'http://www.dianping.com/xiamen/ch10/g238r15651'
p1095
aS'http://www.dianping.com/xiamen/ch10/g238r15652'
p1096
aS'http://www.dianping.com/xiamen/ch10/g238r15653'
p1097
aS'http://www.dianping.com/xiamen/ch10/g238r15654'
p1098
aS'http://www.dianping.com/xiamen/ch10/g238r15655'
p1099
aS'http://www.dianping.com/xiamen/ch10/g238r15656'
p1100
aS'http://www.dianping.com/xiamen/ch10/g133r88417'
p1101
aS'http://www.dianping.com/xiamen/ch10/g252r1842'
p1102
aS'http://www.dianping.com/xiamen/ch10/g254r2007'
p1103
aS'http://www.dianping.com/xiamen/ch10/g4467r15649'
p1104
aS'http://www.dianping.com/xiamen/ch10/g254r2008'
p1105
aS'http://www.dianping.com/xiamen/ch10/g34279r1844'
p1106
aS'http://www.dianping.com/xiamen/ch10/g101r88431'
p1107
aS'http://www.dianping.com/xiamen/ch10/g101r88432'
p1108
aS'http://www.dianping.com/xiamen/ch10/g4481r28962'
p1109
aS'http://www.dianping.com/xiamen/ch10/g101r88437'
p1110
aS'http://www.dianping.com/xiamen/ch10/g1881r27090'
p1111
aS'http://www.dianping.com/xiamen/ch10/g3017r1839'
p1112
aS'http://www.dianping.com/xiamen/ch10/g3017r1838'
p1113
aS'http://www.dianping.com/xiamen/ch10/g3017r1835'
p1114
aS'http://www.dianping.com/xiamen/ch10/g3017r1837'
p1115
aS'http://www.dianping.com/xiamen/ch10/g3017r1836'
p1116
aS'http://www.dianping.com/xiamen/ch10/g3017r1830'
p1117
aS'http://www.dianping.com/xiamen/ch10/g3017r1833'
p1118
aS'http://www.dianping.com/xiamen/ch10/g3017r1832'
p1119
aS'http://www.dianping.com/xiamen/ch10/g223r27464'
p1120
aS'http://www.dianping.com/xiamen/ch10/g34246r30823'
p1121
aS'http://www.dianping.com/xiamen/ch10/g1785r28960'
p1122
aS'http://www.dianping.com/xiamen/ch10/g1785r28963'
p1123
aS'http://www.dianping.com/xiamen/ch10/g26482r88431'
p1124
aS'http://www.dianping.com/xiamen/ch10/g4477r1839'
p1125
aS'http://www.dianping.com/xiamen/ch10/g33924r8087'
p1126
aS'http://www.dianping.com/xiamen/ch10/g4477r1836'
p1127
aS'http://www.dianping.com/xiamen/ch10/g4477r1837'
p1128
aS'http://www.dianping.com/xiamen/ch10/g4477r1831'
p1129
aS'http://www.dianping.com/xiamen/ch10/g4477r1832'
p1130
aS'http://www.dianping.com/xiamen/ch10/g238r27447'
p1131
aS'http://www.dianping.com/xiamen/ch10/g3017r8375'
p1132
aS'http://www.dianping.com/xiamen/ch10/g3017r8374'
p1133
aS'http://www.dianping.com/xiamen/ch10/g105r88412'
p1134
aS'http://www.dianping.com/xiamen/ch10/g33924r8374'
p1135
aS'http://www.dianping.com/xiamen/ch10/g33924r8375'
p1136
aS'http://www.dianping.com/xiamen/ch10/g34246r27090'
p1137
aS'http://www.dianping.com/xiamen/ch10/g33924r2007'
p1138
aS'http://www.dianping.com/xiamen/ch10/g134r28549'
p1139
aS'http://www.dianping.com/xiamen/ch10/g238r88407'
p1140
aS'http://www.dianping.com/xiamen/ch10/g238r88404'
p1141
aS'http://www.dianping.com/xiamen/ch10/g33924r2008'
p1142
aS'http://www.dianping.com/xiamen/ch10/g238r88401'
p1143
aS'http://www.dianping.com/xiamen/ch10/g223r28549'
p1144
aS'http://www.dianping.com/xiamen/ch10/g27804r27090'
p1145
aS'http://www.dianping.com/xiamen/ch10/g27801r88418'
p1146
aS'http://www.dianping.com/xiamen/ch10/g217r27464'
p1147
aS'http://www.dianping.com/xiamen/ch10/g34237r27419'
p1148
aS'http://www.dianping.com/xiamen/ch10/g27801r88412'
p1149
aS'http://www.dianping.com/xiamen/ch10/g27801r88417'
p1150
aS'http://www.dianping.com/xiamen/ch10/g27801r88415'
p1151
aS'http://www.dianping.com/xiamen/ch10/g4601r1842'
p1152
aS'http://www.dianping.com/xiamen/ch10/g4583r2008'
p1153
aS'http://www.dianping.com/xiamen/ch10/g3027r1842'
p1154
aS'http://www.dianping.com/xiamen/ch10/g3027r1840'
p1155
aS'http://www.dianping.com/xiamen/ch10/g3027r1847'
p1156
aS'http://www.dianping.com/xiamen/ch10/g3027r1846'
p1157
aS'http://www.dianping.com/xiamen/ch10/g3027r1845'
p1158
aS'http://www.dianping.com/xiamen/ch10/g34237r27090'
p1159
aS'http://www.dianping.com/xiamen/ch10/g4509r1847'
p1160
aS'http://www.dianping.com/xiamen/ch10/g241r15651'
p1161
aS'http://www.dianping.com/xiamen/ch10/g4509r1845'
p1162
aS'http://www.dianping.com/xiamen/ch10/g4509r1844'
p1163
aS'http://www.dianping.com/xiamen/ch10/g241r15654'
p1164
aS'http://www.dianping.com/xiamen/ch10/g4509r1842'
p1165
aS'http://www.dianping.com/xiamen/ch10/g4509r1840'
p1166
aS'http://www.dianping.com/xiamen/ch10/g1805r28963'
p1167
aS'http://www.dianping.com/xiamen/ch10/g4447r28964'
p1168
aS'http://www.dianping.com/xiamen/ch10/g4447r28963'
p1169
aS'http://www.dianping.com/xiamen/ch10/g4447r28961'
p1170
aS'http://www.dianping.com/xiamen/ch10/g4447r28960'
p1171
aS'http://www.dianping.com/xiamen/ch10/g34244r1839'
p1172
aS'http://www.dianping.com/xiamen/ch10/g34278r1842'
p1173
aS'http://www.dianping.com/xiamen/ch10/g34278r1840'
p1174
aS'http://www.dianping.com/xiamen/ch10/g34240r1844'
p1175
aS'http://www.dianping.com/xiamen/ch10/g24340r8087'
p1176
aS'http://www.dianping.com/xiamen/ch10/g222r88431'
p1177
aS'http://www.dianping.com/xiamen/ch10/g24340r8085'
p1178
aS'http://www.dianping.com/xiamen/ch10/g222r88437'
p1179
aS'http://www.dianping.com/xiamen/ch10/g133r28272'
p1180
aS'http://www.dianping.com/xiamen/ch10/g226r1837'
p1181
aS'http://www.dianping.com/xiamen/ch10/g133r28270'
p1182
aS'http://www.dianping.com/xiamen/ch10/g3023r11310'
p1183
aS'http://www.dianping.com/xiamen/ch10/g133r28274'
p1184
aS'http://www.dianping.com/xiamen/ch10/g34237r64735'
p1185
aS'http://www.dianping.com/xiamen/ch10/g3023r88431'
p1186
aS'http://www.dianping.com/xiamen/ch10/g225r1831'
p1187
aS'http://www.dianping.com/xiamen/ch10/g221r27090'
p1188
aS'http://www.dianping.com/xiamen/ch10/g24340r8374'
p1189
aS'http://www.dianping.com/xiamen/ch10/g24340r8375'
p1190
aS'http://www.dianping.com/xiamen/ch10/g252r15649'
p1191
aS'http://www.dianping.com/xiamen/ch10/g24340r8373'
p1192
aS'http://www.dianping.com/xiamen/ch10/g34245r1842'
p1193
aS'http://www.dianping.com/xiamen/ch10/g34245r1843'
p1194
aS'http://www.dianping.com/xiamen/ch10/g34245r1840'
p1195
aS'http://www.dianping.com/xiamen/ch10/g34245r1846'
p1196
aS'http://www.dianping.com/xiamen/ch10/g34245r1847'
p1197
aS'http://www.dianping.com/xiamen/ch10/g34245r1844'
p1198
aS'http://www.dianping.com/xiamen/ch10/g34245r1845'
p1199
aS'http://www.dianping.com/xiamen/ch10/g109r1840'
p1200
aS'http://www.dianping.com/xiamen/ch10/g34245r88412'
p1201
aS'http://www.dianping.com/xiamen/ch10/g34245r88415'
p1202
aS'http://www.dianping.com/xiamen/ch10/g34245r88417'
p1203
aS'http://www.dianping.com/xiamen/ch10/g34061r8374'
p1204
aS'http://www.dianping.com/xiamen/ch10/g4453r28274'
p1205
aS'http://www.dianping.com/xiamen/ch10/g34245r88418'
p1206
aS'http://www.dianping.com/xiamen/ch10/g4453r28270'
p1207
aS'http://www.dianping.com/xiamen/ch10/g254r8085'
p1208
aS'http://www.dianping.com/xiamen/ch10/g4453r28272'
p1209
aS'http://www.dianping.com/xiamen/ch10/g241r27447'
p1210
aS'http://www.dianping.com/xiamen/ch10/g34240r28963'
p1211
aS'http://www.dianping.com/xiamen/ch10/g114'
p1212
aS'http://www.dianping.com/xiamen/ch10/g111'
p1213
aS'http://www.dianping.com/xiamen/ch10/g4447r88401'
p1214
aS'http://www.dianping.com/xiamen/ch10/g34063r8087'
p1215
aS'http://www.dianping.com/xiamen/ch10/g3031r88431'
p1216
aS'http://www.dianping.com/xiamen/ch10/g254r8087'
p1217
aS'http://www.dianping.com/xiamen/ch10/g241r88405'
p1218
aS'http://www.dianping.com/xiamen/ch10/g241r88404'
p1219
aS'http://www.dianping.com/xiamen/ch10/g241r88403'
p1220
aS'http://www.dianping.com/xiamen/ch10/g4557r27054'
p1221
aS'http://www.dianping.com/xiamen/ch10/g34240r28965'
p1222
aS'http://www.dianping.com/xiamen/ch10/g101r28270'
p1223
aS'http://www.dianping.com/xiamen/ch10/g101r28273'
p1224
aS'http://www.dianping.com/xiamen/ch10/g101r28272'
p1225
aS'http://www.dianping.com/xiamen/ch10/g4473r15652'
p1226
aS'http://www.dianping.com/xiamen/ch10/g3023r88435'
p1227
aS'http://www.dianping.com/xiamen/ch10/g254r88412'
p1228
aS'http://www.dianping.com/xiamen/ch10/g254r88418'
p1229
aS'http://www.dianping.com/xiamen/ch10/g224r2008'
p1230
aS'http://www.dianping.com/xiamen/ch10/g4481r1842'
p1231
aS'http://www.dianping.com/xiamen/ch10/g24340r27090'
p1232
aS'http://www.dianping.com/xiamen/ch10/g205r2008'
p1233
aS'http://www.dianping.com/xiamen/ch10/g224r2007'
p1234
aS'http://www.dianping.com/xiamen/ch10/g3243r27447'
p1235
aS'http://www.dianping.com/xiamen/ch10/g34245r8375'
p1236
aS'http://www.dianping.com/xiamen/ch10/g34245r8374'
p1237
aS'http://www.dianping.com/xiamen/ch10/g34245r8373'
p1238
aS'http://www.dianping.com/xiamen/ch10/g34060r88435'
p1239
aS'http://www.dianping.com/xiamen/ch10/g4473r1842'
p1240
aS'http://www.dianping.com/xiamen/ch10/g4477r11310'
p1241
aS'http://www.dianping.com/xiamen/ch10/g1881r1845'
p1242
aS'http://www.dianping.com/xiamen/ch10/g1881r1844'
p1243
aS'http://www.dianping.com/xiamen/ch10/g1881r1847'
p1244
aS'http://www.dianping.com/xiamen/ch10/g1881r1846'
p1245
aS'http://www.dianping.com/xiamen/ch10/g1881r1840'
p1246
aS'http://www.dianping.com/xiamen/ch10/g1881r1843'
p1247
aS'http://www.dianping.com/xiamen/ch10/g1881r1842'
p1248
aS'http://www.dianping.com/xiamen/ch10/g4467r88431'
p1249
aS'http://www.dianping.com/xiamen/ch10/g4467r88432'
p1250
aS'http://www.dianping.com/xiamen/ch10/g4467r88435'
p1251
aS'http://www.dianping.com/xiamen/ch10/g133r28962'
p1252
aS'http://www.dianping.com/xiamen/ch10/g4467r88437'
p1253
aS'http://www.dianping.com/xiamen/ch10/g4453r70208'
p1254
aS'http://www.dianping.com/xiamen/ch10/g34237r70208'
p1255
aS'http://www.dianping.com/xiamen/ch10/g27803r27090'
p1256
aS'http://www.dianping.com/xiamen/ch10/g223r8374'
p1257
aS'http://www.dianping.com/xiamen/ch10/g238r28549'
p1258
aS'http://www.dianping.com/xiamen/ch10/g34240r1847'
p1259
aS'http://www.dianping.com/xiamen/ch10/g34240r1846'
p1260
aS'http://www.dianping.com/xiamen/ch10/g34240r1840'
p1261
aS'http://www.dianping.com/xiamen/ch10/g34240r1843'
p1262
aS'http://www.dianping.com/xiamen/ch10/g4509r8085'
p1263
aS'http://www.dianping.com/xiamen/ch10/g224r88412'
p1264
aS'http://www.dianping.com/xiamen/ch10/g4509r8087'
p1265
aS'http://www.dianping.com/xiamen/ch10/g133r28549'
p1266
aS'http://www.dianping.com/xiamen/ch10/g4469r27054'
p1267
aS'http://www.dianping.com/xiamen/ch10/g221r1832'
p1268
aS'http://www.dianping.com/xiamen/ch10/g221r1833'
p1269
aS'http://www.dianping.com/xiamen/ch10/g221r1830'
p1270
aS'http://www.dianping.com/xiamen/ch10/g221r1831'
p1271
aS'http://www.dianping.com/xiamen/ch10/g221r1836'
p1272
aS'http://www.dianping.com/xiamen/ch10/g221r1837'
p1273
aS'http://www.dianping.com/xiamen/ch10/g221r1835'
p1274
aS'http://www.dianping.com/xiamen/ch10/g4477r15651'
p1275
aS'http://www.dianping.com/xiamen/ch10/g221r1838'
p1276
aS'http://www.dianping.com/xiamen/ch10/g221r1839'
p1277
aS'http://www.dianping.com/xiamen/ch10/g4477r15655'
p1278
aS'http://www.dianping.com/xiamen/ch10/g4477r15656'
p1279
aS'http://www.dianping.com/xiamen/ch10/g34055'
p1280
aS'http://www.dianping.com/xiamen/ch10/g4469r1842'
p1281
aS'http://www.dianping.com/xiamen/ch10/g34241r11310'
p1282
aS'http://www.dianping.com/xiamen/ch10/g3017r25928'
p1283
aS'http://www.dianping.com/xiamen/ch10/g2621r15651'
p1284
aS'http://www.dianping.com/xiamen/ch10/g2621r15650'
p1285
aS'http://www.dianping.com/xiamen/ch10/g2621r15653'
p1286
aS'http://www.dianping.com/xiamen/ch10/g2621r15652'
p1287
aS'http://www.dianping.com/xiamen/ch10/g2621r15655'
p1288
aS'http://www.dianping.com/xiamen/ch10/g2621r15654'
p1289
aS'http://www.dianping.com/xiamen/ch10/g2621r15656'
p1290
aS'http://www.dianping.com/xiamen/ch10/g205r28964'
p1291
aS'http://www.dianping.com/xiamen/ch10/g133r2007'
p1292
aS'http://www.dianping.com/xiamen/ch10/g27801r64735'
p1293
aS'http://www.dianping.com/xiamen/ch10/g254r15652'
p1294
aS'http://www.dianping.com/xiamen/ch10/g254r15653'
p1295
aS'http://www.dianping.com/xiamen/ch10/g254r15650'
p1296
aS'http://www.dianping.com/xiamen/ch10/g254r15651'
p1297
aS'http://www.dianping.com/xiamen/ch10/g254r15656'
p1298
aS'http://www.dianping.com/xiamen/ch10/g4447r65208'
p1299
aS'http://www.dianping.com/xiamen/ch10/g254r15654'
p1300
aS'http://www.dianping.com/xiamen/ch10/g254r15655'
p1301
aS'http://www.dianping.com/xiamen/ch10/g34240r15650'
p1302
aS'http://www.dianping.com/xiamen/ch10/g34240r15651'
p1303
aS'http://www.dianping.com/xiamen/ch10/g34240r15652'
p1304
aS'http://www.dianping.com/xiamen/ch10/g34240r15653'
p1305
aS'http://www.dianping.com/xiamen/ch10/g34240r15654'
p1306
aS'http://www.dianping.com/xiamen/ch10/g34240r15655'
p1307
aS'http://www.dianping.com/xiamen/ch10/g34240r15656'
p1308
aS'http://www.dianping.com/xiamen/ch10/g34062r1840'
p1309
aS'http://www.dianping.com/xiamen/ch10/g27823r88415'
p1310
aS'http://www.dianping.com/xiamen/ch10/g34246r8374'
p1311
aS'http://www.dianping.com/xiamen/ch10/g34246r8375'
p1312
aS'http://www.dianping.com/xiamen/ch10/g34246r8373'
p1313
aS'http://www.dianping.com/xiamen/ch10/g34066r88418'
p1314
aS'http://www.dianping.com/xiamen/ch10/g101r27447'
p1315
aS'http://www.dianping.com/xiamen/ch10/g4583r8087'
p1316
aS'http://www.dianping.com/xiamen/ch10/g1881r30823'
p1317
aS'http://www.dianping.com/xiamen/ch10/g26483r27447'
p1318
aS'http://www.dianping.com/xiamen/ch10/g3023r88432'
p1319
aS'http://www.dianping.com/xiamen/ch10/g4453r1836'
p1320
aS'http://www.dianping.com/xiamen/ch10/g4453r1837'
p1321
aS'http://www.dianping.com/xiamen/ch10/g4453r1835'
p1322
aS'http://www.dianping.com/xiamen/ch10/g4453r1832'
p1323
aS'http://www.dianping.com/xiamen/ch10/g4453r1833'
p1324
aS'http://www.dianping.com/xiamen/ch10/g4453r1830'
p1325
aS'http://www.dianping.com/xiamen/ch10/g4453r1831'
p1326
aS'http://www.dianping.com/xiamen/ch10/g252r28964'
p1327
aS'http://www.dianping.com/xiamen/ch10/g252r28965'
p1328
aS'http://www.dianping.com/xiamen/ch10/g252r28962'
p1329
aS'http://www.dianping.com/xiamen/ch10/g252r28963'
p1330
aS'http://www.dianping.com/xiamen/ch10/g4453r1838'
p1331
aS'http://www.dianping.com/xiamen/ch10/g4453r1839'
p1332
aS'http://www.dianping.com/xiamen/ch10/g32731r28270'
p1333
aS'http://www.dianping.com/xiamen/ch10/g32731r28273'
p1334
aS'http://www.dianping.com/xiamen/ch10/g32731r28272'
p1335
aS'http://www.dianping.com/xiamen/ch10/g4473r25928'
p1336
aS'http://www.dianping.com/xiamen/ch10/g254r25928'
p1337
aS'http://www.dianping.com/xiamen/ch10/g101r88404'
p1338
aS'http://www.dianping.com/xiamen/ch10/g4473r88431'
p1339
aS'http://www.dianping.com/xiamen/ch10/g4593r2007'
p1340
aS'http://www.dianping.com/xiamen/ch10/g27823r28549'
p1341
aS'http://www.dianping.com/xiamen/ch10/g241r28549'
p1342
aS'http://www.dianping.com/xiamen/ch10/g238r28963'
p1343
aS'http://www.dianping.com/xiamen/ch10/g238r28960'
p1344
aS'http://www.dianping.com/xiamen/ch10/g238r28964'
p1345
aS'http://www.dianping.com/xiamen/ch10/g238r28965'
p1346
aS'http://www.dianping.com/xiamen/ch10/g34246r1847'
p1347
aS'http://www.dianping.com/xiamen/ch10/g34246r1846'
p1348
aS'http://www.dianping.com/xiamen/ch10/g34246r1845'
p1349
aS'http://www.dianping.com/xiamen/ch10/g34246r1844'
p1350
aS'http://www.dianping.com/xiamen/ch10/g34246r1843'
p1351
aS'http://www.dianping.com/xiamen/ch10/g34246r1842'
p1352
aS'http://www.dianping.com/xiamen/ch10/g34246r1840'
p1353
aS'http://www.dianping.com/xiamen/ch10/g32730r15652'
p1354
aS'http://www.dianping.com/xiamen/ch10/g134r15656'
p1355
aS'http://www.dianping.com/xiamen/ch10/g134r15655'
p1356
aS'http://www.dianping.com/xiamen/ch10/g134r15654'
p1357
aS'http://www.dianping.com/xiamen/ch10/g134r15652'
p1358
aS'http://www.dianping.com/xiamen/ch10/g134r15651'
p1359
aS'http://www.dianping.com/xiamen/ch10/g134r15650'
p1360
aS'http://www.dianping.com/xiamen/ch10/g252r27464'
p1361
aS'http://www.dianping.com/xiamen/ch10/g34064r88401'
p1362
aS'http://www.dianping.com/xiamen/ch10/g133r8087'
p1363
aS'http://www.dianping.com/xiamen/ch10/g133r8085'
p1364
aS'http://www.dianping.com/xiamen/ch10/g33924r1844'
p1365
aS'http://www.dianping.com/xiamen/ch10/g3017r28274'
p1366
aS'http://www.dianping.com/xiamen/ch10/g227r8085'
p1367
aS'http://www.dianping.com/xiamen/ch10/g238r25928'
p1368
aS'http://www.dianping.com/xiamen/ch10/g3017r28272'
p1369
aS'http://www.dianping.com/xiamen/ch10/g4467r27054'
p1370
aS'http://www.dianping.com/xiamen/ch10/g207r1844'
p1371
aS'http://www.dianping.com/xiamen/ch10/g34234r1836'
p1372
aS'http://www.dianping.com/xiamen/ch10/g34237r27464'
p1373
aS'http://www.dianping.com/xiamen/ch10/g210r11310'
p1374
aS'http://www.dianping.com/xiamen/ch10/g34223r1831'
p1375
aS'http://www.dianping.com/xiamen/ch10/g34040r28887'
p1376
aS'http://www.dianping.com/xiamen/ch10/g27801r88421'
p1377
aS'http://www.dianping.com/xiamen/ch10/g24340r1834'
p1378
aS'http://www.dianping.com/xiamen/ch10/g24340r1835'
p1379
aS'http://www.dianping.com/xiamen/ch10/g24340r1836'
p1380
aS'http://www.dianping.com/xiamen/ch10/g24340r1837'
p1381
aS'http://www.dianping.com/xiamen/ch10/g24340r1830'
p1382
aS'http://www.dianping.com/xiamen/ch10/g24340r1831'
p1383
aS'http://www.dianping.com/xiamen/ch10/g24340r1832'
p1384
aS'http://www.dianping.com/xiamen/ch10/g24340r1833'
p1385
aS'http://www.dianping.com/xiamen/ch10/g34237r28959'
p1386
aS'http://www.dianping.com/xiamen/ch10/g34237r28958'
p1387
aS'http://www.dianping.com/xiamen/ch10/g24340r1838'
p1388
aS'http://www.dianping.com/xiamen/ch10/g24340r1839'
p1389
aS'http://www.dianping.com/xiamen/ch10/g4557r27447'
p1390
aS'http://www.dianping.com/xiamen/ch10/g4509r1838'
p1391
aS'http://www.dianping.com/xiamen/ch10/g4509r1839'
p1392
aS'http://www.dianping.com/xiamen/ch10/g4509r1832'
p1393
aS'http://www.dianping.com/xiamen/ch10/g4509r1833'
p1394
aS'http://www.dianping.com/xiamen/ch10/g4509r1830'
p1395
aS'http://www.dianping.com/xiamen/ch10/g34066r15655'
p1396
aS'http://www.dianping.com/xiamen/ch10/g4509r1836'
p1397
aS'http://www.dianping.com/xiamen/ch10/g4509r1837'
p1398
aS'http://www.dianping.com/xiamen/ch10/g241r15649'
p1399
aS'http://www.dianping.com/xiamen/ch10/g4509r1835'
p1400
aS'http://www.dianping.com/xiamen/ch10/g34241r88401'
p1401
aS'http://www.dianping.com/xiamen/ch10/g34241r88407'
p1402
aS'http://www.dianping.com/xiamen/ch10/g34241r88404'
p1403
aS'http://www.dianping.com/xiamen/ch10/g217r70523'
p1404
aS'http://www.dianping.com/xiamen/ch10/g3027r8087'
p1405
aS'http://www.dianping.com/xiamen/ch10/g222r70523'
p1406
aS'http://www.dianping.com/xiamen/ch10/g34278r1837'
p1407
aS'http://www.dianping.com/xiamen/ch10/g34278r1836'
p1408
aS'http://www.dianping.com/xiamen/ch10/g34278r1839'
p1409
aS'http://www.dianping.com/xiamen/ch10/g221r88417'
p1410
aS'http://www.dianping.com/xiamen/ch10/g221r88415'
p1411
aS'http://www.dianping.com/xiamen/ch10/g221r88412'
p1412
aS'http://www.dianping.com/xiamen/ch10/g252r27419'
p1413
aS'http://www.dianping.com/xiamen/ch10/g4449r27447'
p1414
aS'http://www.dianping.com/xiamen/ch10/g3027r28270'
p1415
aS'http://www.dianping.com/xiamen/ch10/g3027r28272'
p1416
aS'http://www.dianping.com/xiamen/ch10/g3027r28273'
p1417
aS'http://www.dianping.com/xiamen/ch10/g241r28960'
p1418
aS'http://www.dianping.com/xiamen/ch10/g105r27464'
p1419
aS'http://www.dianping.com/xiamen/ch10/g33924r70208'
p1420
aS'http://www.dianping.com/xiamen/ch10/g241r28965'
p1421
aS'http://www.dianping.com/xiamen/ch10/g34279r1846'
p1422
aS'http://www.dianping.com/xiamen/ch10/g27803r25928'
p1423
aS'http://www.dianping.com/xiamen/ch10/g4453r28887'
p1424
aS'http://www.dianping.com/xiamen/ch10/g4597r1833'
p1425
aS'http://www.dianping.com/xiamen/ch10/g4351r88403'
p1426
aS'http://www.dianping.com/xiamen/ch10/g1881r70523'
p1427
aS'http://www.dianping.com/xiamen/ch10/g27823r1844'
p1428
aS'http://www.dianping.com/xiamen/ch10/g27823r1845'
p1429
aS'http://www.dianping.com/xiamen/ch10/g27823r1846'
p1430
aS'http://www.dianping.com/xiamen/ch10/g27823r1847'
p1431
aS'http://www.dianping.com/xiamen/ch10/g27823r1840'
p1432
aS'http://www.dianping.com/xiamen/ch10/g205r8087'
p1433
aS'http://www.dianping.com/xiamen/ch10/g27823r1842'
p1434
aS'http://www.dianping.com/xiamen/ch10/g4273r15652'
p1435
aS'http://www.dianping.com/xiamen/ch10/g226r2007'
p1436
aS'http://www.dianping.com/xiamen/ch10/g104'
p1437
aS'http://www.dianping.com/xiamen/ch10/g107'
p1438
aS'http://www.dianping.com/xiamen/ch10/g34234r28959'
p1439
aS'http://www.dianping.com/xiamen/ch10/g3017r70208'
p1440
aS'http://www.dianping.com/xiamen/ch10/g26482r28270'
p1441
aS'http://www.dianping.com/xiamen/ch10/g26483r25928'
p1442
aS'http://www.dianping.com/xiamen/ch10/g109r2007'
p1443
aS'http://www.dianping.com/xiamen/ch10/g34225r88412'
p1444
aS'http://www.dianping.com/xiamen/ch10/g241r25928'
p1445
aS'http://www.dianping.com/xiamen/ch10/g34225r88415'
p1446
aS'http://www.dianping.com/xiamen/ch10/g101r8087'
p1447
aS'http://www.dianping.com/xiamen/ch10/g101r8085'
p1448
aS'http://www.dianping.com/xiamen/ch10/g207r25928'
p1449
aS'http://www.dianping.com/xiamen/ch10/g1821r1835'
p1450
aS'http://www.dianping.com/xiamen/ch10/g34245r27447'
p1451
aS'http://www.dianping.com/xiamen/ch10/g4583r8085'
p1452
aS'http://www.dianping.com/xiamen/ch10/g254r88405'
p1453
aS'http://www.dianping.com/xiamen/ch10/g34225r1845'
p1454
aS'http://www.dianping.com/xiamen/ch10/g254r88407'
p1455
aS'http://www.dianping.com/xiamen/ch10/g34225r1847'
p1456
aS'http://www.dianping.com/xiamen/ch10/g34225r1840'
p1457
aS'http://www.dianping.com/xiamen/ch10/g34225r1842'
p1458
aS'http://www.dianping.com/xiamen/ch10/g134r1835'
p1459
aS'http://www.dianping.com/xiamen/ch10/g3023r27447'
p1460
aS'http://www.dianping.com/xiamen/ch10/g134r1837'
p1461
aS'http://www.dianping.com/xiamen/ch10/g134r1836'
p1462
aS'http://www.dianping.com/xiamen/ch10/g134r1831'
p1463
aS'http://www.dianping.com/xiamen/ch10/g207r27090'
p1464
aS'http://www.dianping.com/xiamen/ch10/g134r1833'
p1465
aS'http://www.dianping.com/xiamen/ch10/g134r1832'
p1466
aS'http://www.dianping.com/xiamen/ch10/g134r1839'
p1467
aS'http://www.dianping.com/xiamen/ch10/g134r1838'
p1468
aS'http://www.dianping.com/xiamen/ch10/g133r85846'
p1469
aS'http://www.dianping.com/xiamen/ch10/g221r15652'
p1470
aS'http://www.dianping.com/xiamen/ch10/g221r15650'
p1471
aS'http://www.dianping.com/xiamen/ch10/g34243r70523'
p1472
aS'http://www.dianping.com/xiamen/ch10/g221r15656'
p1473
aS'http://www.dianping.com/xiamen/ch10/g3027r27054'
p1474
aS'http://www.dianping.com/xiamen/ch10/g221r15654'
p1475
aS'http://www.dianping.com/xiamen/ch10/g221r15655'
p1476
aS'http://www.dianping.com/xiamen/ch10/g33924r28272'
p1477
aS'http://www.dianping.com/xiamen/ch10/g33924r28273'
p1478
aS'http://www.dianping.com/xiamen/ch10/g33924r28270'
p1479
aS'http://www.dianping.com/xiamen/ch10/g33924r28274'
p1480
aS'http://www.dianping.com/xiamen/ch10/g4447r15655'
p1481
aS'http://www.dianping.com/xiamen/ch10/g27804r1830'
p1482
aS'http://www.dianping.com/xiamen/ch10/g226r15649'
p1483
aS'http://www.dianping.com/xiamen/ch10/g27804r1834'
p1484
aS'http://www.dianping.com/xiamen/ch10/g4447r15654'
p1485
aS'http://www.dianping.com/xiamen/ch10/g27804r1839'
p1486
aS'http://www.dianping.com/xiamen/ch10/g4467r28958'
p1487
aS'http://www.dianping.com/xiamen/ch10/g34246r1830'
p1488
aS'http://www.dianping.com/xiamen/ch10/g4467r88421'
p1489
aS'http://www.dianping.com/xiamen/ch10/g4447r15656'
p1490
aS'http://www.dianping.com/xiamen/ch10/g4473r28272'
p1491
aS'http://www.dianping.com/xiamen/ch10/g4593r8087'
p1492
aS'http://www.dianping.com/xiamen/ch10/g4473r28270'
p1493
aS'http://www.dianping.com/xiamen/ch10/g4447r15650'
p1494
aS'http://www.dianping.com/xiamen/ch10/g34237r70185'
p1495
aS'http://www.dianping.com/xiamen/ch10/g4593r8085'
p1496
aS'http://www.dianping.com/xiamen/ch10/g32733r27054'
p1497
aS'http://www.dianping.com/xiamen/ch10/g4509r27090'
p1498
aS'http://www.dianping.com/xiamen/ch10/g4447r15652'
p1499
aS'http://www.dianping.com/xiamen/ch10/g219'
p1500
aS'http://www.dianping.com/xiamen/ch10/g133r2008'
p1501
aS'http://www.dianping.com/xiamen/ch10/g203r15650'
p1502
aS'http://www.dianping.com/xiamen/ch10/g34223r15656'
p1503
aS'http://www.dianping.com/xiamen/ch10/g27803r8373'
p1504
aS'http://www.dianping.com/xiamen/ch10/g221r25928'
p1505
aS'http://www.dianping.com/xiamen/ch10/g27803r8375'
p1506
aS'http://www.dianping.com/xiamen/ch10/g27803r8374'
p1507
aS'http://www.dianping.com/xiamen/ch10/g101r27054'
p1508
aS'http://www.dianping.com/xiamen/ch10/g4583r88404'
p1509
aS'http://www.dianping.com/xiamen/ch10/g203r1832'
p1510
aS'http://www.dianping.com/xiamen/ch10/g203r1833'
p1511
aS'http://www.dianping.com/xiamen/ch10/g1821r8085'
p1512
aS'http://www.dianping.com/xiamen/ch10/g34277r27090'
p1513
aS'http://www.dianping.com/xiamen/ch10/g34223r2007'
p1514
aS'http://www.dianping.com/xiamen/ch10/g27803r70523'
p1515
aS'http://www.dianping.com/xiamen/ch10/g1821r8087'
p1516
aS'http://www.dianping.com/xiamen/ch10/g3023r88401'
p1517
aS'http://www.dianping.com/xiamen/ch10/g238r15649'
p1518
aS'http://www.dianping.com/xiamen/ch10/g3023r88403'
p1519
aS'http://www.dianping.com/xiamen/ch10/g1947r1840'
p1520
aS'http://www.dianping.com/xiamen/ch10/g252r28961'
p1521
aS'http://www.dianping.com/xiamen/ch10/g3023r88409'
p1522
aS'http://www.dianping.com/xiamen/ch10/g2621r15649'
p1523
aS'http://www.dianping.com/xiamen/ch10/g34060r2008'
p1524
aS'http://www.dianping.com/xiamen/ch10/g4453r27090'
p1525
aS'http://www.dianping.com/xiamen/ch10/g32731r1837'
p1526
aS'http://www.dianping.com/xiamen/ch10/g1805r25928'
p1527
aS'http://www.dianping.com/xiamen/ch10/g105r8374'
p1528
aS'http://www.dianping.com/xiamen/ch10/g34060r2007'
p1529
aS'http://www.dianping.com/xiamen/ch10/g32733r65208'
p1530
aS'http://www.dianping.com/xiamen/ch10/g3233r25928'
p1531
aS'http://www.dianping.com/xiamen/ch10/g133r27447'
p1532
aS'http://www.dianping.com/xiamen/ch10/g254r15649'
p1533
aS'http://www.dianping.com/xiamen/ch10/g32733r8087'
p1534
aS'http://www.dianping.com/xiamen/ch10/g4449r8373'
p1535
aS'http://www.dianping.com/xiamen/ch10/g4449r8375'
p1536
aS'http://www.dianping.com/xiamen/ch10/g4449r8374'
p1537
aS'http://www.dianping.com/xiamen/ch10/g1821r28964'
p1538
aS'http://www.dianping.com/xiamen/ch10/g1821r28965'
p1539
aS'http://www.dianping.com/xiamen/ch10/g1821r28960'
p1540
aS'http://www.dianping.com/xiamen/ch10/g1821r28962'
p1541
aS'http://www.dianping.com/xiamen/ch10/g1821r28963'
p1542
aS'http://www.dianping.com/xiamen/ch10/g226r1831'
p1543
aS'http://www.dianping.com/xiamen/ch10/g34063r27090'
p1544
aS'http://www.dianping.com/xiamen/ch10/g2621r27054'
p1545
aS'http://www.dianping.com/xiamen/ch10/g2621r88437'
p1546
aS'http://www.dianping.com/xiamen/ch10/g27801r28270'
p1547
aS'http://www.dianping.com/xiamen/ch10/g27801r28273'
p1548
aS'http://www.dianping.com/xiamen/ch10/g27801r28272'
p1549
aS'http://www.dianping.com/xiamen/ch10/g2621r88432'
p1550
aS'http://www.dianping.com/xiamen/ch10/g2621r88431'
p1551
aS'http://www.dianping.com/xiamen/ch10/g4447r8374'
p1552
aS'http://www.dianping.com/xiamen/ch10/g4447r15649'
p1553
aS'http://www.dianping.com/xiamen/ch10/g4593r8375'
p1554
aS'http://www.dianping.com/xiamen/ch10/g34241r1847'
p1555
aS'http://www.dianping.com/xiamen/ch10/g34040r8087'
p1556
aS'http://www.dianping.com/xiamen/ch10/g34241r1842'
p1557
aS'http://www.dianping.com/xiamen/ch10/g34241r1843'
p1558
aS'http://www.dianping.com/xiamen/ch10/g34241r1840'
p1559
aS'http://www.dianping.com/xiamen/ch10/g34060r88415'
p1560
aS'http://www.dianping.com/xiamen/ch10/g101r88418'
p1561
aS'http://www.dianping.com/xiamen/ch10/g224r28964'
p1562
aS'http://www.dianping.com/xiamen/ch10/g224r28960'
p1563
aS'http://www.dianping.com/xiamen/ch10/g101r88412'
p1564
aS'http://www.dianping.com/xiamen/ch10/g133r15650'
p1565
aS'http://www.dianping.com/xiamen/ch10/g133r1830'
p1566
aS'http://www.dianping.com/xiamen/ch10/g134r28961'
p1567
aS'http://www.dianping.com/xiamen/ch10/g101r88407'
p1568
aS'http://www.dianping.com/xiamen/ch10/g2621r25928'
p1569
aS'http://www.dianping.com/xiamen/ch10/g27803r2007'
p1570
aS'http://www.dianping.com/xiamen/ch10/g34278r27054'
p1571
aS'http://www.dianping.com/xiamen/ch10/g34277r1832'
p1572
aS'http://www.dianping.com/xiamen/ch10/g27803r2008'
p1573
aS'http://www.dianping.com/xiamen/ch10/g34277r1837'
p1574
aS'http://www.dianping.com/xiamen/ch10/g3023r15652'
p1575
aS'http://www.dianping.com/xiamen/ch10/g3023r15653'
p1576
aS'http://www.dianping.com/xiamen/ch10/g3023r15650'
p1577
aS'http://www.dianping.com/xiamen/ch10/g3023r15656'
p1578
aS'http://www.dianping.com/xiamen/ch10/g109r28887'
p1579
aS'http://www.dianping.com/xiamen/ch10/g3023r15654'
p1580
aS'http://www.dianping.com/xiamen/ch10/g3023r15655'
p1581
aS'http://www.dianping.com/xiamen/ch10/g4447r1837'
p1582
aS'http://www.dianping.com/xiamen/ch10/g4447r1836'
p1583
aS'http://www.dianping.com/xiamen/ch10/g4447r1835'
p1584
aS'http://www.dianping.com/xiamen/ch10/g4447r1833'
p1585
aS'http://www.dianping.com/xiamen/ch10/g1881r1839'
p1586
aS'http://www.dianping.com/xiamen/ch10/g207r11310'
p1587
aS'http://www.dianping.com/xiamen/ch10/g4597r1844'
p1588
aS'http://www.dianping.com/xiamen/ch10/g134r28963'
p1589
aS'http://www.dianping.com/xiamen/ch10/g4593r27464'
p1590
aS'http://www.dianping.com/xiamen/ch10/g34223r28549'
p1591
aS'http://www.dianping.com/xiamen/ch10/g34224r2007'
p1592
aS'http://www.dianping.com/xiamen/ch10/g210r65208'
p1593
aS'http://www.dianping.com/xiamen/ch10/g210r8373'
p1594
aS'http://www.dianping.com/xiamen/ch10/g210r8374'
p1595
aS'http://www.dianping.com/xiamen/ch10/g4453r25928'
p1596
aS'http://www.dianping.com/xiamen/ch10/g101r1847'
p1597
aS'http://www.dianping.com/xiamen/ch10/g134r28965'
p1598
aS'http://www.dianping.com/xiamen/ch10/g224r11310'
p1599
aS'http://www.dianping.com/xiamen/ch10/g27801r88431'
p1600
aS'http://www.dianping.com/xiamen/ch10/g207r1833'
p1601
aS'http://www.dianping.com/xiamen/ch10/g32730r88417'
p1602
aS'http://www.dianping.com/xiamen/ch10/g27801r88437'
p1603
aS'http://www.dianping.com/xiamen/ch10/g3243r27464'
p1604
aS'http://www.dianping.com/xiamen/ch10/g4273r1846'
p1605
aS'http://www.dianping.com/xiamen/ch10/g34060r25928'
p1606
aS'http://www.dianping.com/xiamen/ch10/g4473r27054'
p1607
aS'http://www.dianping.com/xiamen/ch10/g241r1838'
p1608
aS'http://www.dianping.com/xiamen/ch10/g27801r2007'
p1609
aS'http://www.dianping.com/xiamen/ch10/g3017r27447'
p1610
aS'http://www.dianping.com/xiamen/ch10/g241r1839'
p1611
aS'http://www.dianping.com/xiamen/ch10/g27801r2008'
p1612
aS'http://www.dianping.com/xiamen/ch10/g4469r1840'
p1613
aS'http://www.dianping.com/xiamen/ch10/g3233r1840'
p1614
aS'http://www.dianping.com/xiamen/ch10/g221r88405'
p1615
aS'http://www.dianping.com/xiamen/ch10/g221r88404'
p1616
aS'http://www.dianping.com/xiamen/ch10/g221r88407'
p1617
aS'http://www.dianping.com/xiamen/ch10/g221r88401'
p1618
aS'http://www.dianping.com/xiamen/ch10/g221r88403'
p1619
aS'http://www.dianping.com/xiamen/ch10/g134r28887'
p1620
aS'http://www.dianping.com/xiamen/ch10/g221r88409'
p1621
aS'http://www.dianping.com/xiamen/ch10/g4447r88432'
p1622
aS'http://www.dianping.com/xiamen/ch10/g4447r88431'
p1623
aS'http://www.dianping.com/xiamen/ch10/g1881r65208'
p1624
aS'http://www.dianping.com/xiamen/ch10/g4447r88435'
p1625
aS'http://www.dianping.com/xiamen/ch10/g24340r25928'
p1626
aS'http://www.dianping.com/xiamen/ch10/g34246r28270'
p1627
aS'http://www.dianping.com/xiamen/ch10/g34246r28272'
p1628
aS'http://www.dianping.com/xiamen/ch10/g3243r28549'
p1629
aS'http://www.dianping.com/xiamen/ch10/g134r1845'
p1630
aS'http://www.dianping.com/xiamen/ch10/g4593r27054'
p1631
aS'http://www.dianping.com/xiamen/ch10/g34277r28960'
p1632
aS'http://www.dianping.com/xiamen/ch10/g27823r28961'
p1633
aS'http://www.dianping.com/xiamen/ch10/g27823r28960'
p1634
aS'http://www.dianping.com/xiamen/ch10/g27823r28963'
p1635
aS'http://www.dianping.com/xiamen/ch10/g4583r88417'
p1636
aS'http://www.dianping.com/xiamen/ch10/g27823r28965'
p1637
aS'http://www.dianping.com/xiamen/ch10/g225r88403'
p1638
aS'http://www.dianping.com/xiamen/ch10/g134r1846'
p1639
aS'http://www.dianping.com/xiamen/ch10/g134r28272'
p1640
aS'http://www.dianping.com/xiamen/ch10/g4467r30823'
p1641
aS'http://www.dianping.com/xiamen/ch10/g225r88405'
p1642
aS'http://www.dianping.com/xiamen/ch10/g238r27054'
p1643
aS'http://www.dianping.com/xiamen/ch10/g225r88407'
p1644
aS'http://www.dianping.com/xiamen/ch10/g134r1847'
p1645
aS'http://www.dianping.com/xiamen/ch10/g4473r1830'
p1646
aS'http://www.dianping.com/xiamen/ch10/g226r25928'
p1647
aS'http://www.dianping.com/xiamen/ch10/g4473r1832'
p1648
aS'http://www.dianping.com/xiamen/ch10/g4473r1833'
p1649
aS'http://www.dianping.com/xiamen/ch10/g4473r1835'
p1650
aS'http://www.dianping.com/xiamen/ch10/g4473r1836'
p1651
aS'http://www.dianping.com/xiamen/ch10/g4473r1837'
p1652
aS'http://www.dianping.com/xiamen/ch10/g4473r1838'
p1653
aS'http://www.dianping.com/xiamen/ch10/g4473r1839'
p1654
aS'http://www.dianping.com/xiamen/ch10/g238r70208'
p1655
aS'http://www.dianping.com/xiamen/ch10/g34061r15655'
p1656
aS'http://www.dianping.com/xiamen/ch10/g34061r15654'
p1657
aS'http://www.dianping.com/xiamen/ch10/g34061r15656'
p1658
aS'http://www.dianping.com/xiamen/ch10/g207r1842'
p1659
aS'http://www.dianping.com/xiamen/ch10/g34061r15653'
p1660
aS'http://www.dianping.com/xiamen/ch10/g34060r27090'
p1661
aS'http://www.dianping.com/xiamen/ch10/g3023r27054'
p1662
aS'http://www.dianping.com/xiamen/ch10/g254r88435'
p1663
aS'http://www.dianping.com/xiamen/ch10/g254r88437'
p1664
aS'http://www.dianping.com/xiamen/ch10/g32731r27090'
p1665
aS'http://www.dianping.com/xiamen/ch10/g3243r1838'
p1666
aS'http://www.dianping.com/xiamen/ch10/g3243r1839'
p1667
aS'http://www.dianping.com/xiamen/ch10/g3243r1836'
p1668
aS'http://www.dianping.com/xiamen/ch10/g3243r1837'
p1669
aS'http://www.dianping.com/xiamen/ch10/g3243r1835'
p1670
aS'http://www.dianping.com/xiamen/ch10/g3243r1832'
p1671
aS'http://www.dianping.com/xiamen/ch10/g3243r1833'
p1672
aS'http://www.dianping.com/xiamen/ch10/g1821r28549'
p1673
aS'http://www.dianping.com/xiamen/ch10/g221r15649'
p1674
aS'http://www.dianping.com/xiamen/ch10/g4477r2007'
p1675
aS'http://www.dianping.com/xiamen/ch10/g4467r28961'
p1676
aS'http://www.dianping.com/xiamen/ch10/g32731r27419'
p1677
aS'http://www.dianping.com/xiamen/ch10/g4467r28963'
p1678
aS'http://www.dianping.com/xiamen/ch10/g4467r28962'
p1679
aS'http://www.dianping.com/xiamen/ch10/g4467r28965'
p1680
aS'http://www.dianping.com/xiamen/ch10/g4467r28964'
p1681
aS'http://www.dianping.com/xiamen/ch10/g207r1840'
p1682
aS'http://www.dianping.com/xiamen/ch10/g4351r25928'
p1683
aS'http://www.dianping.com/xiamen/ch10/g226r15655'
p1684
aS'http://www.dianping.com/xiamen/ch10/g24340r30823'
p1685
aS'http://www.dianping.com/xiamen/ch10/g226r15656'
p1686
aS'http://www.dianping.com/xiamen/ch10/g3023r28270'
p1687
aS'http://www.dianping.com/xiamen/ch10/g3023r28272'
p1688
aS'http://www.dianping.com/xiamen/ch10/g3023r28274'
p1689
aS'http://www.dianping.com/xiamen/ch10/g4273r2007'
p1690
aS'http://www.dianping.com/xiamen/ch10/g2821r25928'
p1691
aS'http://www.dianping.com/xiamen/ch10/g207r1847'
p1692
aS'http://www.dianping.com/xiamen/ch10/g4273r2008'
p1693
aS'http://www.dianping.com/xiamen/ch10/g4593r11310'
p1694
aS'http://www.dianping.com/xiamen/ch10/g4449r15650'
p1695
aS'http://www.dianping.com/xiamen/ch10/g248r15649'
p1696
aS'http://www.dianping.com/xiamen/ch10/g3095r70208'
p1697
aS'http://www.dianping.com/xiamen/ch10/g24340r27054'
p1698
aS'http://www.dianping.com/xiamen/ch10/g2621r11310'
p1699
aS'http://www.dianping.com/xiamen/ch10/g3023r88412'
p1700
aS'http://www.dianping.com/xiamen/ch10/g3027r88415'
p1701
aS'http://www.dianping.com/xiamen/ch10/g3023r88415'
p1702
aS'http://www.dianping.com/xiamen/ch10/g27823r88431'
p1703
aS'http://www.dianping.com/xiamen/ch10/g34060r65208'
p1704
aS'http://www.dianping.com/xiamen/ch10/g101r2008'
p1705
aS'http://www.dianping.com/xiamen/ch10/g207r1845'
p1706
aS'http://www.dianping.com/xiamen/ch10/g1821r70208'
p1707
aS'http://www.dianping.com/xiamen/ch10/g101r2007'
p1708
aS'http://www.dianping.com/xiamen/ch10/g34223r1840'
p1709
aS'http://www.dianping.com/xiamen/ch10/g34223r1846'
p1710
aS'http://www.dianping.com/xiamen/ch10/g34223r1847'
p1711
aS'http://www.dianping.com/xiamen/ch10/g34223r1844'
p1712
aS'http://www.dianping.com/xiamen/ch10/g222r25928'
p1713
aS'http://www.dianping.com/xiamen/ch10/g1821r28959'
p1714
aS'http://www.dianping.com/xiamen/ch10/g254r1833'
p1715
aS'http://www.dianping.com/xiamen/ch10/g254r1830'
p1716
aS'http://www.dianping.com/xiamen/ch10/g254r1831'
p1717
aS'http://www.dianping.com/xiamen/ch10/g254r1836'
p1718
aS'http://www.dianping.com/xiamen/ch10/g254r1837'
p1719
aS'http://www.dianping.com/xiamen/ch10/g241r70208'
p1720
aS'http://www.dianping.com/xiamen/ch10/g254r1835'
p1721
aS'http://www.dianping.com/xiamen/ch10/g254r1838'
p1722
aS'http://www.dianping.com/xiamen/ch10/g254r1839'
p1723
aS'http://www.dianping.com/xiamen/ch10/g33924r1838'
p1724
aS'http://www.dianping.com/xiamen/ch10/g33924r1839'
p1725
aS'http://www.dianping.com/xiamen/ch10/g3027r27464'
p1726
aS'http://www.dianping.com/xiamen/ch10/g2621r28959'
p1727
aS'http://www.dianping.com/xiamen/ch10/g224r28887'
p1728
aS'http://www.dianping.com/xiamen/ch10/g34061r85846'
p1729
aS'http://www.dianping.com/xiamen/ch10/g34237r11310'
p1730
aS'http://www.dianping.com/xiamen/ch10/g109r28961'
p1731
aS'http://www.dianping.com/xiamen/ch10/g34225r15649'
p1732
aS'http://www.dianping.com/xiamen/ch10/g109r28963'
p1733
aS'http://www.dianping.com/xiamen/ch10/g34241r1833'
p1734
aS'http://www.dianping.com/xiamen/ch10/g34241r1832'
p1735
aS'http://www.dianping.com/xiamen/ch10/g34241r1830'
p1736
aS'http://www.dianping.com/xiamen/ch10/g34241r1837'
p1737
aS'http://www.dianping.com/xiamen/ch10/g1785r88405'
p1738
aS'http://www.dianping.com/xiamen/ch10/g34241r1835'
p1739
aS'http://www.dianping.com/xiamen/ch10/g2621r28887'
p1740
aS'http://www.dianping.com/xiamen/ch10/g34241r1839'
p1741
aS'http://www.dianping.com/xiamen/ch10/g34246r8085'
p1742
aS'http://www.dianping.com/xiamen/ch10/g34246r8087'
p1743
aS'http://www.dianping.com/xiamen/ch10/g34060r8087'
p1744
aS'http://www.dianping.com/xiamen/ch10/g34060r8085'
p1745
aS'http://www.dianping.com/xiamen/ch10/g223r27054'
p1746
aS'http://www.dianping.com/xiamen/ch10/g109r8374'
p1747
aS'http://www.dianping.com/xiamen/ch10/g33924r1836'
p1748
aS'http://www.dianping.com/xiamen/ch10/g34041r1834'
p1749
aS'http://www.dianping.com/xiamen/ch10/g34041r1837'
p1750
aS'http://www.dianping.com/xiamen/ch10/g34041r1836'
p1751
aS'http://www.dianping.com/xiamen/ch10/g34041r1831'
p1752
aS'http://www.dianping.com/xiamen/ch10/g34041r1839'
p1753
aS'http://www.dianping.com/xiamen/ch10/g34041r1838'
p1754
aS'http://www.dianping.com/xiamen/ch10/g133r28273'
p1755
aS'http://www.dianping.com/xiamen/ch10/g33924r1837'
p1756
aS'http://www.dianping.com/xiamen/ch10/g224r1844'
p1757
aS'http://www.dianping.com/xiamen/ch10/g34240r2008'
p1758
aS'http://www.dianping.com/xiamen/ch10/g248r1836'
p1759
aS'http://www.dianping.com/xiamen/ch10/g226r1839'
p1760
aS'http://www.dianping.com/xiamen/ch10/g4447r1842'
p1761
aS'http://www.dianping.com/xiamen/ch10/g226r1836'
p1762
aS'http://www.dianping.com/xiamen/ch10/g4447r1840'
p1763
aS'http://www.dianping.com/xiamen/ch10/g4447r1846'
p1764
aS'http://www.dianping.com/xiamen/ch10/g4447r1847'
p1765
aS'http://www.dianping.com/xiamen/ch10/g4447r1844'
p1766
aS'http://www.dianping.com/xiamen/ch10/g226r1830'
p1767
aS'http://www.dianping.com/xiamen/ch10/g224r1847'
p1768
aS'http://www.dianping.com/xiamen/ch10/g224r1840'
p1769
aS'http://www.dianping.com/xiamen/ch10/g3017r28270'
p1770
aS'http://www.dianping.com/xiamen/ch10/g208r65208'
p1771
aS'http://www.dianping.com/xiamen/ch10/g26483r1840'
p1772
aS'http://www.dianping.com/xiamen/ch10/g254r28549'
p1773
aS'http://www.dianping.com/xiamen/ch10/g34061r28274'
p1774
aS'http://www.dianping.com/xiamen/ch10/g34061r28273'
p1775
aS'http://www.dianping.com/xiamen/ch10/g34061r28270'
p1776
aS'http://www.dianping.com/xiamen/ch10/g133r88412'
p1777
aS'http://www.dianping.com/xiamen/ch10/g32733r28271'
p1778
aS'http://www.dianping.com/xiamen/ch10/g32733r28270'
p1779
aS'http://www.dianping.com/xiamen/ch10/g226r8085'
p1780
aS'http://www.dianping.com/xiamen/ch10/g34245r65208'
p1781
aS'http://www.dianping.com/xiamen/ch10/g252r27090'
p1782
aS'http://www.dianping.com/xiamen/ch10/g34225r70208'
p1783
aS'http://www.dianping.com/xiamen/ch10/g134r27419'
p1784
aS'http://www.dianping.com/xiamen/ch10/g4509r65208'
p1785
aS'http://www.dianping.com/xiamen/ch10/g34237r27447'
p1786
aS'http://www.dianping.com/xiamen/ch10/g133r15653'
p1787
aS'http://www.dianping.com/xiamen/ch10/g1881r27447'
p1788
aS'http://www.dianping.com/xiamen/ch10/g207r27447'
p1789
aS'http://www.dianping.com/xiamen/ch10/g133r1842'
p1790
aS'http://www.dianping.com/xiamen/ch10/g222r70185'
p1791
aS'http://www.dianping.com/xiamen/ch10/g4447r28958'
p1792
aS'http://www.dianping.com/xiamen/ch10/g3017r88412'
p1793
aS'http://www.dianping.com/xiamen/ch10/g252r8087'
p1794
aS'http://www.dianping.com/xiamen/ch10/g252r8085'
p1795
aS'http://www.dianping.com/xiamen/ch10/g4477r8374'
p1796
aS'http://www.dianping.com/xiamen/ch10/g4477r8375'
p1797
aS'http://www.dianping.com/xiamen/ch10/g105r28961'
p1798
aS'http://www.dianping.com/xiamen/ch10/g133r1847'
p1799
aS'http://www.dianping.com/xiamen/ch10/g208r1846'
p1800
aS'http://www.dianping.com/xiamen/ch10/g208r1847'
p1801
aS'http://www.dianping.com/xiamen/ch10/g208r1845'
p1802
aS'http://www.dianping.com/xiamen/ch10/g4473r88415'
p1803
aS'http://www.dianping.com/xiamen/ch10/g2714'
p1804
aS'http://www.dianping.com/xiamen/ch10/g34234r11310'
p1805
aS'http://www.dianping.com/xiamen/ch10/g4557r65208'
p1806
aS'http://www.dianping.com/xiamen/ch10/g221r88431'
p1807
aS'http://www.dianping.com/xiamen/ch10/g32733r1830'
p1808
aS'http://www.dianping.com/xiamen/ch10/g221r88435'
p1809
aS'http://www.dianping.com/xiamen/ch10/g221r88437'
p1810
aS'http://www.dianping.com/xiamen/ch10/g33924r11310'
p1811
aS'http://www.dianping.com/xiamen/ch10/g32733r1836'
p1812
aS'http://www.dianping.com/xiamen/ch10/g4449r27464'
p1813
aS'http://www.dianping.com/xiamen/ch10/g34061r1837'
p1814
aS'http://www.dianping.com/xiamen/ch10/g3027r11310'
p1815
aS'http://www.dianping.com/xiamen/ch10/g34240r65208'
p1816
aS'http://www.dianping.com/xiamen/ch10/g34238r1837'
p1817
aS'http://www.dianping.com/xiamen/ch10/g225r1846'
p1818
aS'http://www.dianping.com/xiamen/ch10/g3027r8374'
p1819
aS'http://www.dianping.com/xiamen/ch10/g32731r88407'
p1820
aS'http://www.dianping.com/xiamen/ch10/g3027r8373'
p1821
aS'http://www.dianping.com/xiamen/ch10/g34238r1830'
p1822
aS'http://www.dianping.com/xiamen/ch10/g224r28549'
p1823
aS'http://www.dianping.com/xiamen/ch10/g205r1836'
p1824
aS'http://www.dianping.com/xiamen/ch10/g3243r25928'
p1825
aS'http://www.dianping.com/xiamen/ch10/g205r1837'
p1826
aS'http://www.dianping.com/xiamen/ch10/g4449r65208'
p1827
aS'http://www.dianping.com/xiamen/ch10/g4509r85846'
p1828
aS'http://www.dianping.com/xiamen/ch10/g24340r88415'
p1829
aS'http://www.dianping.com/xiamen/ch10/g24340r88417'
p1830
aS'http://www.dianping.com/xiamen/ch10/g24340r88412'
p1831
aS'http://www.dianping.com/xiamen/ch10/g24340r88418'
p1832
aS'http://www.dianping.com/xiamen/ch10/g1785r1837'
p1833
aS'http://www.dianping.com/xiamen/ch10/g2621r64735'
p1834
aS'http://www.dianping.com/xiamen/ch10/g225r28549'
p1835
aS'http://www.dianping.com/xiamen/ch10/g3027r1835'
p1836
aS'http://www.dianping.com/xiamen/ch10/g34240r28549'
p1837
aS'http://www.dianping.com/xiamen/ch10/g27803r28549'
p1838
aS'http://www.dianping.com/xiamen/ch10/g254r28959'
p1839
aS'http://www.dianping.com/xiamen/ch10/g32731r88409'
p1840
aS'http://www.dianping.com/xiamen/ch10/g34061r1839'
p1841
aS'http://www.dianping.com/xiamen/ch10/g210r85846'
p1842
aS'http://www.dianping.com/xiamen/ch10/g3243r65208'
p1843
aS'http://www.dianping.com/xiamen/ch10/g222r28273'
p1844
aS'http://www.dianping.com/xiamen/ch10/g222r28272'
p1845
aS'http://www.dianping.com/xiamen/ch10/g222r28270'
p1846
aS'http://www.dianping.com/xiamen/ch10/g32731r88404'
p1847
aS'http://www.dianping.com/xiamen/ch10/g34061r1836'
p1848
aS'http://www.dianping.com/xiamen/ch10/g222r28274'
p1849
aS'http://www.dianping.com/xiamen/ch10/g4583r15649'
p1850
aS'http://www.dianping.com/xiamen/ch10/g3027r1833'
p1851
aS'http://www.dianping.com/xiamen/ch10/g210r1832'
p1852
aS'http://www.dianping.com/xiamen/ch10/g34041r8087'
p1853
aS'http://www.dianping.com/xiamen/ch10/g4447r2008'
p1854
aS'http://www.dianping.com/xiamen/ch10/g4467r28549'
p1855
aS'http://www.dianping.com/xiamen/ch10/g24340r27447'
p1856
aS'http://www.dianping.com/xiamen/ch10/g1338'
p1857
aS'http://www.dianping.com/xiamen/ch10/g4447r27090'
p1858
aS'http://www.dianping.com/xiamen/ch10/g217r1846'
p1859
aS'http://www.dianping.com/xiamen/ch10/g217r1847'
p1860
aS'http://www.dianping.com/xiamen/ch10/g217r1844'
p1861
aS'http://www.dianping.com/xiamen/ch10/g217r1845'
p1862
aS'http://www.dianping.com/xiamen/ch10/g217r1842'
p1863
aS'http://www.dianping.com/xiamen/ch10/g217r1843'
p1864
aS'http://www.dianping.com/xiamen/ch10/g217r1840'
p1865
aS'http://www.dianping.com/xiamen/ch10/g3243r15652'
p1866
aS'http://www.dianping.com/xiamen/ch10/g4273r27054'
p1867
aS'http://www.dianping.com/xiamen/ch10/g224r15650'
p1868
aS'http://www.dianping.com/xiamen/ch10/g252r2007'
p1869
aS'http://www.dianping.com/xiamen/ch10/g224r70523'
p1870
aS'http://www.dianping.com/xiamen/ch10/g4273r15649'
p1871
aS'http://www.dianping.com/xiamen/ch10/g34060r27447'
p1872
aS'http://www.dianping.com/xiamen/ch10/g4583r2007'
p1873
aS'http://www.dianping.com/xiamen/ch10/g34237r70523'
p1874
aS'http://www.dianping.com/xiamen/ch10/g33924r28960'
p1875
aS'http://www.dianping.com/xiamen/ch10/g4509r1834'
p1876
aS'http://www.dianping.com/xiamen/ch10/g32723r8374'
p1877
aS'http://www.dianping.com/xiamen/ch10/g34223r27090'
p1878
aS'http://www.dianping.com/xiamen/ch10/g133r28887'
p1879
aS'http://www.dianping.com/xiamen/ch10/g4557r28272'
p1880
aS'http://www.dianping.com/xiamen/ch10/g134r27090'
p1881
aS'http://www.dianping.com/xiamen/ch10/g4557r28274'
p1882
aS'http://www.dianping.com/xiamen/ch10/g223r88437'
p1883
aS'http://www.dianping.com/xiamen/ch10/g223r88431'
p1884
aS'http://www.dianping.com/xiamen/ch10/g105r11310'
p1885
aS'http://www.dianping.com/xiamen/ch10/g4509r25928'
p1886
aS'http://www.dianping.com/xiamen/ch10/g252r70185'
p1887
aS'http://www.dianping.com/xiamen/ch10/g101r27419'
p1888
aS'http://www.dianping.com/xiamen/ch10/g34246r15656'
p1889
aS'http://www.dianping.com/xiamen/ch10/g34246r15654'
p1890
aS'http://www.dianping.com/xiamen/ch10/g34246r15655'
p1891
aS'http://www.dianping.com/xiamen/ch10/g34246r15652'
p1892
aS'http://www.dianping.com/xiamen/ch10/g34246r15653'
p1893
aS'http://www.dianping.com/xiamen/ch10/g34246r15650'
p1894
aS'http://www.dianping.com/xiamen/ch10/g34246r15651'
p1895
aS'http://www.dianping.com/xiamen/ch10/g34060r70523'
p1896
aS'http://www.dianping.com/xiamen/ch10/g34225r27447'
p1897
aS'http://www.dianping.com/xiamen/ch10/g4449r28270'
p1898
aS'http://www.dianping.com/xiamen/ch10/g4449r28273'
p1899
aS'http://www.dianping.com/xiamen/ch10/g221r28549'
p1900
aS'http://www.dianping.com/xiamen/ch10/g2621r88415'
p1901
aS'http://www.dianping.com/xiamen/ch10/g2621r88417'
p1902
aS'http://www.dianping.com/xiamen/ch10/g101r27090'
p1903
aS'http://www.dianping.com/xiamen/ch10/g34225r15656'
p1904
aS'http://www.dianping.com/xiamen/ch10/g34225r15655'
p1905
aS'http://www.dianping.com/xiamen/ch10/g1785r88431'
p1906
aS'http://www.dianping.com/xiamen/ch10/g252r28959'
p1907
aS'http://www.dianping.com/xiamen/ch10/g252r28958'
p1908
aS'http://www.dianping.com/xiamen/ch10/g34225r11310'
p1909
aS'http://www.dianping.com/xiamen/ch10/g32723r28549'
p1910
aS'http://www.dianping.com/xiamen/ch10/g1881r27054'
p1911
aS'http://www.dianping.com/xiamen/ch10/g4477r28272'
p1912
aS'http://www.dianping.com/xiamen/ch10/g4477r28273'
p1913
aS'http://www.dianping.com/xiamen/ch10/g4453r27054'
p1914
aS'http://www.dianping.com/xiamen/ch10/g205r88431'
p1915
aS'http://www.dianping.com/xiamen/ch10/g4601r11310'
p1916
aS'http://www.dianping.com/xiamen/ch10/g238r11310'
p1917
aS'http://www.dianping.com/xiamen/ch10/g4467r15653'
p1918
aS'http://www.dianping.com/xiamen/ch10/g238r28959'
p1919
aS'http://www.dianping.com/xiamen/ch10/g238r28958'
p1920
aS'http://www.dianping.com/xiamen/ch10/g4467r15651'
p1921
aS'http://www.dianping.com/xiamen/ch10/g4467r15650'
p1922
aS'http://www.dianping.com/xiamen/ch10/g2823r8375'
p1923
aS'http://www.dianping.com/xiamen/ch10/g34243r1835'
p1924
aS'http://www.dianping.com/xiamen/ch10/g34243r1834'
p1925
aS'http://www.dianping.com/xiamen/ch10/g34243r1837'
p1926
aS'http://www.dianping.com/xiamen/ch10/g34243r1836'
p1927
aS'http://www.dianping.com/xiamen/ch10/g34243r1831'
p1928
aS'http://www.dianping.com/xiamen/ch10/g34243r1830'
p1929
aS'http://www.dianping.com/xiamen/ch10/g34243r1833'
p1930
aS'http://www.dianping.com/xiamen/ch10/g34243r1832'
p1931
aS'http://www.dianping.com/xiamen/ch10/g4469r2008'
p1932
aS'http://www.dianping.com/xiamen/ch10/g34243r1839'
p1933
aS'http://www.dianping.com/xiamen/ch10/g34243r1838'
p1934
aS'http://www.dianping.com/xiamen/ch10/g34065r1830'
p1935
aS'http://www.dianping.com/xiamen/ch10/g134r88417'
p1936
aS'http://www.dianping.com/xiamen/ch10/g26482r1833'
p1937
aS'http://www.dianping.com/xiamen/ch10/g1453r25928'
p1938
aS'http://www.dianping.com/xiamen/ch10/g34246r2007'
p1939
aS'http://www.dianping.com/xiamen/ch10/g34224r88401'
p1940
aS'http://www.dianping.com/xiamen/ch10/g34246r2008'
p1941
aS'http://www.dianping.com/xiamen/ch10/g34061r88431'
p1942
aS'http://www.dianping.com/xiamen/ch10/g4473r1845'
p1943
aS'http://www.dianping.com/xiamen/ch10/g241r15653'
p1944
aS'http://www.dianping.com/xiamen/ch10/g1881r25928'
p1945
aS'http://www.dianping.com/xiamen/ch10/g105r25928'
p1946
aS'http://www.dianping.com/xiamen/ch10/g134r25928'
p1947
aS'http://www.dianping.com/xiamen/ch10/g4557r8374'
p1948
aS'http://www.dianping.com/xiamen/ch10/g4473r1844'
p1949
aS'http://www.dianping.com/xiamen/ch10/g101r25928'
p1950
aS'http://www.dianping.com/xiamen/ch10/g34243r15652'
p1951
aS'http://www.dianping.com/xiamen/ch10/g1785r65208'
p1952
aS'http://www.dianping.com/xiamen/ch10/g27801r27090'
p1953
aS'http://www.dianping.com/xiamen/ch10/g248r88407'
p1954
aS'http://www.dianping.com/xiamen/ch10/g1881r28959'
p1955
aS'http://www.dianping.com/xiamen/ch10/g1881r28958'
p1956
aS'http://www.dianping.com/xiamen/ch10/g34237r2007'
p1957
aS'http://www.dianping.com/xiamen/ch10/g105r28959'
p1958
aS'http://www.dianping.com/xiamen/ch10/g238r8374'
p1959
aS'http://www.dianping.com/xiamen/ch10/g241r15655'
p1960
aS'http://www.dianping.com/xiamen/ch10/g238r8373'
p1961
aS'http://www.dianping.com/xiamen/ch10/g34237r27054'
p1962
aS'http://www.dianping.com/xiamen/ch10/g207r8373'
p1963
aS'http://www.dianping.com/xiamen/ch10/g4453r27464'
p1964
aS'http://www.dianping.com/xiamen/ch10/g207r8374'
p1965
aS'http://www.dianping.com/xiamen/ch10/g207r8375'
p1966
aS'http://www.dianping.com/xiamen/ch10/g4467r8373'
p1967
aS'http://www.dianping.com/xiamen/ch10/g4467r8375'
p1968
aS'http://www.dianping.com/xiamen/ch10/g4467r8374'
p1969
aS'http://www.dianping.com/xiamen/ch10/g252r27447'
p1970
aS'http://www.dianping.com/xiamen/ch10/g221r28959'
p1971
aS'http://www.dianping.com/xiamen/ch10/g221r28958'
p1972
aS'http://www.dianping.com/xiamen/ch10/g1805r88404'
p1973
aS'http://www.dianping.com/xiamen/ch10/g252r28272'
p1974
aS'http://www.dianping.com/xiamen/ch10/g4477r27090'
p1975
aS'http://www.dianping.com/xiamen/ch10/g241r11310'
p1976
aS'http://www.dianping.com/xiamen/ch10/g4447r11310'
p1977
aS'http://www.dianping.com/xiamen/ch10/g4469r8375'
p1978
aS'http://www.dianping.com/xiamen/ch10/g4469r8374'
p1979
aS'http://www.dianping.com/xiamen/ch10/g1821r27464'
p1980
aS'http://www.dianping.com/xiamen/ch10/g241r28959'
p1981
aS'http://www.dianping.com/xiamen/ch10/g241r28958'
p1982
aS'http://www.dianping.com/xiamen/ch10/g1817'
p1983
aS'http://www.dianping.com/xiamen/ch10/g34234r8085'
p1984
aS'http://www.dianping.com/xiamen/ch10/g208r28272'
p1985
aS'http://www.dianping.com/xiamen/ch10/g223r28272'
p1986
aS'http://www.dianping.com/xiamen/ch10/g223r28270'
p1987
aS'http://www.dianping.com/xiamen/ch10/g25151r1839'
p1988
aS'http://www.dianping.com/xiamen/ch10/g34277r88431'
p1989
aS'http://www.dianping.com/xiamen/ch10/g32723r15653'
p1990
aS'http://www.dianping.com/xiamen/ch10/g25151r1832'
p1991
aS'http://www.dianping.com/xiamen/ch10/g4469r25928'
p1992
aS'http://www.dianping.com/xiamen/ch10/g25151r1837'
p1993
aS'http://www.dianping.com/xiamen/ch10/g32723r15655'
p1994
aS'http://www.dianping.com/xiamen/ch10/g24340r88407'
p1995
aS'http://www.dianping.com/xiamen/ch10/g24340r88405'
p1996
aS'http://www.dianping.com/xiamen/ch10/g24340r88404'
p1997
aS'http://www.dianping.com/xiamen/ch10/g133r8374'
p1998
aS'http://www.dianping.com/xiamen/ch10/g4447r88415'
p1999
aS'http://www.dianping.com/xiamen/ch10/g252r15655'
p2000
aS'http://www.dianping.com/xiamen/ch10/g4447r88417'
p2001
aS'http://www.dianping.com/xiamen/ch10/g241r27054'
p2002
aS'http://www.dianping.com/xiamen/ch10/g252r15650'
p2003
aS'http://www.dianping.com/xiamen/ch10/g252r15651'
p2004
aS'http://www.dianping.com/xiamen/ch10/g24340r88409'
p2005
aS'http://www.dianping.com/xiamen/ch10/g4447r88412'
p2006
aS'http://www.dianping.com/xiamen/ch10/g32731r1844'
p2007
aS'http://www.dianping.com/xiamen/ch10/g1821r8373'
p2008
aS'http://www.dianping.com/xiamen/ch10/g32731r1846'
p2009
aS'http://www.dianping.com/xiamen/ch10/g32731r1847'
p2010
aS'http://www.dianping.com/xiamen/ch10/g4557r27090'
p2011
aS'http://www.dianping.com/xiamen/ch10/g1821r8374'
p2012
aS'http://www.dianping.com/xiamen/ch10/g1821r8375'
p2013
aS'http://www.dianping.com/xiamen/ch10/g32723r1836'
p2014
aS'http://www.dianping.com/xiamen/ch10/g34040r2007'
p2015
aS'http://www.dianping.com/xiamen/ch10/g210r70523'
p2016
aS'http://www.dianping.com/xiamen/ch10/g32723r1830'
p2017
aS'http://www.dianping.com/xiamen/ch10/g2821r1835'
p2018
aS'http://www.dianping.com/xiamen/ch10/g4469r1839'
p2019
aS'http://www.dianping.com/xiamen/ch10/g4469r1838'
p2020
aS'http://www.dianping.com/xiamen/ch10/g4469r1837'
p2021
aS'http://www.dianping.com/xiamen/ch10/g4469r1836'
p2022
aS'http://www.dianping.com/xiamen/ch10/g4469r1835'
p2023
aS'http://www.dianping.com/xiamen/ch10/g34063r1847'
p2024
aS'http://www.dianping.com/xiamen/ch10/g34063r1840'
p2025
aS'http://www.dianping.com/xiamen/ch10/g4469r1832'
p2026
aS'http://www.dianping.com/xiamen/ch10/g4469r1831'
p2027
aS'http://www.dianping.com/xiamen/ch10/g4449r28272'
p2028
aS'http://www.dianping.com/xiamen/ch10/g254r28960'
p2029
aS'http://www.dianping.com/xiamen/ch10/g254r28962'
p2030
aS'http://www.dianping.com/xiamen/ch10/g254r28964'
p2031
aS'http://www.dianping.com/xiamen/ch10/g1881r88409'
p2032
aS'http://www.dianping.com/xiamen/ch10/g1881r88407'
p2033
aS'http://www.dianping.com/xiamen/ch10/g252r2008'
p2034
aS'http://www.dianping.com/xiamen/ch10/g1881r88405'
p2035
aS'http://www.dianping.com/xiamen/ch10/g1881r88404'
p2036
aS'http://www.dianping.com/xiamen/ch10/g1881r88401'
p2037
aS'http://www.dianping.com/xiamen/ch10/g34065r11310'
p2038
aS'http://www.dianping.com/xiamen/ch10/g32731r88412'
p2039
aS'http://www.dianping.com/xiamen/ch10/g1821r88421'
p2040
aS'http://www.dianping.com/xiamen/ch10/g32731r88417'
p2041
aS'http://www.dianping.com/xiamen/ch10/g134r70175'
p2042
aS'http://www.dianping.com/xiamen/ch10/g4583r11310'
p2043
aS'http://www.dianping.com/xiamen/ch10/g34225r25928'
p2044
aS'http://www.dianping.com/xiamen/ch10/g4449r27090'
p2045
aS'http://www.dianping.com/xiamen/ch10/g223r8087'
p2046
aS'http://www.dianping.com/xiamen/ch10/g223r8085'
p2047
aS'http://www.dianping.com/xiamen/ch10/g34237r28274'
p2048
aS'http://www.dianping.com/xiamen/ch10/g3027r88435'
p2049
aS'http://www.dianping.com/xiamen/ch10/g4583r15652'
p2050
aS'http://www.dianping.com/xiamen/ch10/g4583r15653'
p2051
aS'http://www.dianping.com/xiamen/ch10/g34237r28270'
p2052
aS'http://www.dianping.com/xiamen/ch10/g34237r28271'
p2053
aS'http://www.dianping.com/xiamen/ch10/g34237r28272'
p2054
aS'http://www.dianping.com/xiamen/ch10/g34237r28273'
p2055
aS'http://www.dianping.com/xiamen/ch10/g1821r1847'
p2056
aS'http://www.dianping.com/xiamen/ch10/g1821r1846'
p2057
aS'http://www.dianping.com/xiamen/ch10/g1821r1845'
p2058
aS'http://www.dianping.com/xiamen/ch10/g1821r1844'
p2059
aS'http://www.dianping.com/xiamen/ch10/g1821r1843'
p2060
aS'http://www.dianping.com/xiamen/ch10/g1821r1842'
p2061
aS'http://www.dianping.com/xiamen/ch10/g1821r1840'
p2062
aS'http://www.dianping.com/xiamen/ch10/g224r88404'
p2063
aS'http://www.dianping.com/xiamen/ch10/g1881r85846'
p2064
aS'http://www.dianping.com/xiamen/ch10/g226r70208'
p2065
aS'http://www.dianping.com/xiamen/ch10/g1947r1847'
p2066
aS'http://www.dianping.com/xiamen/ch10/g34040r70208'
p2067
aS'http://www.dianping.com/xiamen/ch10/g1947r1843'
p2068
aS'http://www.dianping.com/xiamen/ch10/g34060r28272'
p2069
aS'http://www.dianping.com/xiamen/ch10/g34060r28270'
p2070
aS'http://www.dianping.com/xiamen/ch10/g34060r28271'
p2071
aS'http://www.dianping.com/xiamen/ch10/g32731r15649'
p2072
aS'http://www.dianping.com/xiamen/ch10/g32726r1844'
p2073
aS'http://www.dianping.com/xiamen/ch10/g224r1832'
p2074
aS'http://www.dianping.com/xiamen/ch10/g4593r1830'
p2075
aS'http://www.dianping.com/xiamen/ch10/g1785r15653'
p2076
aS'http://www.dianping.com/xiamen/ch10/g210r70185'
p2077
aS'http://www.dianping.com/xiamen/ch10/g34061r30823'
p2078
aS'http://www.dianping.com/xiamen/ch10/g34240r25928'
p2079
aS'http://www.dianping.com/xiamen/ch10/g34240r88417'
p2080
aS'http://www.dianping.com/xiamen/ch10/g3243r1840'
p2081
aS'http://www.dianping.com/xiamen/ch10/g3023r27090'
p2082
aS'http://www.dianping.com/xiamen/ch10/g34014'
p2083
aS'http://www.dianping.com/xiamen/ch10/g32731r27054'
p2084
aS'http://www.dianping.com/xiamen/ch10/g1947r28273'
p2085
aS'http://www.dianping.com/xiamen/ch10/g34237r65208'
p2086
aS'http://www.dianping.com/xiamen/ch10/g3023r8375'
p2087
aS'http://www.dianping.com/xiamen/ch10/g205r8085'
p2088
aS'http://www.dianping.com/xiamen/ch10/g1881r28887'
p2089
aS'http://www.dianping.com/xiamen/ch10/g223r88421'
p2090
aS'http://www.dianping.com/xiamen/ch10/g3027r70208'
p2091
aS'http://www.dianping.com/xiamen/ch10/g34060r1838'
p2092
aS'http://www.dianping.com/xiamen/ch10/g34060r1839'
p2093
aS'http://www.dianping.com/xiamen/ch10/g34060r1834'
p2094
aS'http://www.dianping.com/xiamen/ch10/g34060r1835'
p2095
aS'http://www.dianping.com/xiamen/ch10/g34060r1836'
p2096
aS'http://www.dianping.com/xiamen/ch10/g34060r1837'
p2097
aS'http://www.dianping.com/xiamen/ch10/g222r11310'
p2098
aS'http://www.dianping.com/xiamen/ch10/g4273r15650'
p2099
aS'http://www.dianping.com/xiamen/ch10/g34060r1833'
p2100
aS'http://www.dianping.com/xiamen/ch10/g1785r15650'
p2101
aS'http://www.dianping.com/xiamen/ch10/g34237r70175'
p2102
aS'http://www.dianping.com/xiamen/ch10/g1785r1840'
p2103
aS'http://www.dianping.com/xiamen/ch10/g109r28549'
p2104
aS'http://www.dianping.com/xiamen/ch10/g34246r15649'
p2105
aS'http://www.dianping.com/xiamen/ch10/g101r1837'
p2106
aS'http://www.dianping.com/xiamen/ch10/g34279r8375'
p2107
aS'http://www.dianping.com/xiamen/ch10/g27823r15649'
p2108
aS'http://www.dianping.com/xiamen/ch10/g34066r1839'
p2109
aS'http://www.dianping.com/xiamen/ch10/g134r8085'
p2110
aS'http://www.dianping.com/xiamen/ch10/g133r64735'
p2111
aS'http://www.dianping.com/xiamen/ch10/g4453r11310'
p2112
aS'http://www.dianping.com/xiamen/ch10/g24340r28272'
p2113
aS'http://www.dianping.com/xiamen/ch10/g24340r28270'
p2114
aS'http://www.dianping.com/xiamen/ch10/g105r65208'
p2115
aS'http://www.dianping.com/xiamen/ch10/g24340r28274'
p2116
aS'http://www.dianping.com/xiamen/ch10/g34278r8374'
p2117
aS'http://www.dianping.com/xiamen/ch10/g34060r8374'
p2118
aS'http://www.dianping.com/xiamen/ch10/g34060r8375'
p2119
aS'http://www.dianping.com/xiamen/ch10/g34237r8085'
p2120
aS'http://www.dianping.com/xiamen/ch10/g34237r8087'
p2121
aS'http://www.dianping.com/xiamen/ch10/g3017r1844'
p2122
aS'http://www.dianping.com/xiamen/ch10/g3017r1845'
p2123
aS'http://www.dianping.com/xiamen/ch10/g3017r1847'
p2124
aS'http://www.dianping.com/xiamen/ch10/g3017r1840'
p2125
aS'http://www.dianping.com/xiamen/ch10/g3017r1842'
p2126
aS'http://www.dianping.com/xiamen/ch10/g3017r1843'
p2127
aS'http://www.dianping.com/xiamen/ch10/g2621r88409'
p2128
aS'http://www.dianping.com/xiamen/ch10/g2621r88407'
p2129
aS'http://www.dianping.com/xiamen/ch10/g2621r88405'
p2130
aS'http://www.dianping.com/xiamen/ch10/g2621r88403'
p2131
aS'http://www.dianping.com/xiamen/ch10/g3017r27054'
p2132
aS'http://www.dianping.com/xiamen/ch10/g4469r28272'
p2133
aS'http://www.dianping.com/xiamen/ch10/g33924r15650'
p2134
aS'http://www.dianping.com/xiamen/ch10/g33924r15651'
p2135
aS'http://www.dianping.com/xiamen/ch10/g33924r15652'
p2136
aS'http://www.dianping.com/xiamen/ch10/g33924r15653'
p2137
aS'http://www.dianping.com/xiamen/ch10/g33924r15654'
p2138
aS'http://www.dianping.com/xiamen/ch10/g33924r15655'
p2139
aS'http://www.dianping.com/xiamen/ch10/g33924r15656'
p2140
aS'http://www.dianping.com/xiamen/ch10/g241r64735'
p2141
aS'http://www.dianping.com/xiamen/ch10/g4469r28270'
p2142
aS'http://www.dianping.com/xiamen/ch10/g33924r28959'
p2143
aS'http://www.dianping.com/xiamen/ch10/g2621r30823'
p2144
aS'http://www.dianping.com/xiamen/ch10/g1821r11310'
p2145
aS'http://www.dianping.com/xiamen/ch10/g238r27090'
p2146
aS'http://www.dianping.com/xiamen/ch10/g217r70185'
p2147
aS'http://www.dianping.com/xiamen/ch10/g223r27090'
p2148
aS'http://www.dianping.com/xiamen/ch10/g210r28270'
p2149
aS'http://www.dianping.com/xiamen/ch10/g210r28271'
p2150
aS'http://www.dianping.com/xiamen/ch10/g210r28272'
p2151
aS'http://www.dianping.com/xiamen/ch10/g210r28273'
p2152
aS'http://www.dianping.com/xiamen/ch10/g210r28274'
p2153
aS'http://www.dianping.com/xiamen/ch10/g4557r1840'
p2154
aS'http://www.dianping.com/xiamen/ch10/g238r27419'
p2155
aS'http://www.dianping.com/xiamen/ch10/g4473r27447'
p2156
aS'http://www.dianping.com/xiamen/ch10/g4557r1842'
p2157
aS'http://www.dianping.com/xiamen/ch10/g221r8373'
p2158
aS'http://www.dianping.com/xiamen/ch10/g4273r15656'
p2159
aS'http://www.dianping.com/xiamen/ch10/g221r8374'
p2160
aS'http://www.dianping.com/xiamen/ch10/g221r8375'
p2161
aS'http://www.dianping.com/xiamen/ch10/g210r88401'
p2162
aS'http://www.dianping.com/xiamen/ch10/g4557r1846'
p2163
aS'http://www.dianping.com/xiamen/ch10/g4473r2007'
p2164
aS'http://www.dianping.com/xiamen/ch10/g4473r2008'
p2165
aS'http://www.dianping.com/xiamen/ch10/g34041r88401'
p2166
aS'http://www.dianping.com/xiamen/ch10/g225r15651'
p2167
aS'http://www.dianping.com/xiamen/ch10/g207r28549'
p2168
aS'http://www.dianping.com/xiamen/ch10/g3023r8374'
p2169
aS'http://www.dianping.com/xiamen/ch10/g34246r11310'
p2170
aS'http://www.dianping.com/xiamen/ch10/g252r28549'
p2171
aS'http://www.dianping.com/xiamen/ch10/g34243r8373'
p2172
aS'http://www.dianping.com/xiamen/ch10/g34243r8375'
p2173
aS'http://www.dianping.com/xiamen/ch10/g34243r8374'
p2174
aS'http://www.dianping.com/xiamen/ch10/g3017r28549'
p2175
aS'http://www.dianping.com/xiamen/ch10/g34277r11310'
p2176
aS'http://www.dianping.com/xiamen/ch10/g221r28960'
p2177
aS'http://www.dianping.com/xiamen/ch10/g221r28961'
p2178
aS'http://www.dianping.com/xiamen/ch10/g221r28962'
p2179
aS'http://www.dianping.com/xiamen/ch10/g221r28963'
p2180
aS'http://www.dianping.com/xiamen/ch10/g221r28964'
p2181
aS'http://www.dianping.com/xiamen/ch10/g221r28965'
p2182
aS'http://www.dianping.com/xiamen/ch10/g1805r88412'
p2183
aS'http://www.dianping.com/xiamen/ch10/g34066r27464'
p2184
aS'http://www.dianping.com/xiamen/ch10/g34225r28549'
p2185
aS'http://www.dianping.com/xiamen/ch10/g26482r1838'
p2186
aS'http://www.dianping.com/xiamen/ch10/g227r8375'
p2187
aS'http://www.dianping.com/xiamen/ch10/g4597r28887'
p2188
aS'http://www.dianping.com/xiamen/ch10/g252r27054'
p2189
aS'http://www.dianping.com/xiamen/ch10/g34243r8087'
p2190
aS'http://www.dianping.com/xiamen/ch10/g34243r8085'
p2191
aS'http://www.dianping.com/xiamen/ch10/g3233r1839'
p2192
aS'http://www.dianping.com/xiamen/ch10/g3023r1847'
p2193
aS'http://www.dianping.com/xiamen/ch10/g3023r1846'
p2194
aS'http://www.dianping.com/xiamen/ch10/g3023r1845'
p2195
aS'http://www.dianping.com/xiamen/ch10/g3023r1844'
p2196
aS'http://www.dianping.com/xiamen/ch10/g3023r1843'
p2197
aS'http://www.dianping.com/xiamen/ch10/g3023r1842'
p2198
aS'http://www.dianping.com/xiamen/ch10/g3023r1840'
p2199
aS'http://www.dianping.com/xiamen/ch10/g4449r1843'
p2200
aS'http://www.dianping.com/xiamen/ch10/g32723r15649'
p2201
aS'http://www.dianping.com/xiamen/ch10/g238r70185'
p2202
aS'http://www.dianping.com/xiamen/ch10/g4557r88417'
p2203
aS'http://www.dianping.com/xiamen/ch10/g4557r88415'
p2204
aS'http://www.dianping.com/xiamen/ch10/g2621r88412'
p2205
aS'http://www.dianping.com/xiamen/ch10/g4447r88403'
p2206
aS'http://www.dianping.com/xiamen/ch10/g24340r88431'
p2207
aS'http://www.dianping.com/xiamen/ch10/g4447r88407'
p2208
aS'http://www.dianping.com/xiamen/ch10/g4447r88404'
p2209
aS'http://www.dianping.com/xiamen/ch10/g241r27090'
p2210
aS'http://www.dianping.com/xiamen/ch10/g1785r8085'
p2211
aS'http://www.dianping.com/xiamen/ch10/g4473r1840'
p2212
aS'http://www.dianping.com/xiamen/ch10/g32723r1840'
p2213
aS'http://www.dianping.com/xiamen/ch10/g32723r1847'
p2214
aS'http://www.dianping.com/xiamen/ch10/g32723r1846'
p2215
aS'http://www.dianping.com/xiamen/ch10/g4473r1847'
p2216
aS'http://www.dianping.com/xiamen/ch10/g4473r1846'
p2217
aS'http://www.dianping.com/xiamen/ch10/g222r1833'
p2218
aS'http://www.dianping.com/xiamen/ch10/g222r1832'
p2219
aS'http://www.dianping.com/xiamen/ch10/g222r1831'
p2220
aS'http://www.dianping.com/xiamen/ch10/g222r1830'
p2221
aS'http://www.dianping.com/xiamen/ch10/g222r1837'
p2222
aS'http://www.dianping.com/xiamen/ch10/g222r1836'
p2223
aS'http://www.dianping.com/xiamen/ch10/g222r1835'
p2224
aS'http://www.dianping.com/xiamen/ch10/g2621r88418'
p2225
aS'http://www.dianping.com/xiamen/ch10/g4593r88417'
p2226
aS'http://www.dianping.com/xiamen/ch10/g254r88401'
p2227
aS'http://www.dianping.com/xiamen/ch10/g222r1839'
p2228
aS'http://www.dianping.com/xiamen/ch10/g222r1838'
p2229
aS'http://www.dianping.com/xiamen/ch10/g4469r1847'
p2230
aS'http://www.dianping.com/xiamen/ch10/g4469r1845'
p2231
aS'http://www.dianping.com/xiamen/ch10/g4593r2008'
p2232
aS'http://www.dianping.com/xiamen/ch10/g1881r88418'
p2233
aS'http://www.dianping.com/xiamen/ch10/g4453r8085'
p2234
aS'http://www.dianping.com/xiamen/ch10/g4453r8087'
p2235
aS'http://www.dianping.com/xiamen/ch10/g1881r88415'
p2236
aS'http://www.dianping.com/xiamen/ch10/g1881r88417'
p2237
aS'http://www.dianping.com/xiamen/ch10/g1881r88412'
p2238
aS'http://www.dianping.com/xiamen/ch10/g34243r70185'
p2239
aS'http://www.dianping.com/xiamen/ch10/g4449r88417'
p2240
aS'http://www.dianping.com/xiamen/ch10/g4449r88415'
p2241
aS'http://www.dianping.com/xiamen/ch10/g4449r88412'
p2242
aS'http://www.dianping.com/xiamen/ch10/g1821r88431'
p2243
aS'http://www.dianping.com/xiamen/ch10/g1821r88432'
p2244
aS'http://www.dianping.com/xiamen/ch10/g1821r88437'
p2245
aS'http://www.dianping.com/xiamen/ch10/g3027r88409'
p2246
aS'http://www.dianping.com/xiamen/ch10/g27801r28887'
p2247
aS'http://www.dianping.com/xiamen/ch10/g224r88409'
p2248
aS'http://www.dianping.com/xiamen/ch10/g3027r88401'
p2249
aS'http://www.dianping.com/xiamen/ch10/g3027r88407'
p2250
aS'http://www.dianping.com/xiamen/ch10/g34041r28887'
p2251
aS'http://www.dianping.com/xiamen/ch10/g1821r1838'
p2252
aS'http://www.dianping.com/xiamen/ch10/g1821r1839'
p2253
aS'http://www.dianping.com/xiamen/ch10/g1785r25928'
p2254
aS'http://www.dianping.com/xiamen/ch10/g226r2008'
p2255
aS'http://www.dianping.com/xiamen/ch10/g1821r1832'
p2256
aS'http://www.dianping.com/xiamen/ch10/g1821r1833'
p2257
aS'http://www.dianping.com/xiamen/ch10/g1821r1830'
p2258
aS'http://www.dianping.com/xiamen/ch10/g1821r1831'
p2259
aS'http://www.dianping.com/xiamen/ch10/g1821r1836'
p2260
aS'http://www.dianping.com/xiamen/ch10/g1821r1837'
p2261
aS'http://www.dianping.com/xiamen/ch10/g1821r1834'
p2262
aS'http://www.dianping.com/xiamen/ch10/g203r25928'
p2263
aS'http://www.dianping.com/xiamen/ch10/g222r8085'
p2264
aS'http://www.dianping.com/xiamen/ch10/g222r8087'
p2265
aS'http://www.dianping.com/xiamen/ch10/g27801r15649'
p2266
aS'http://www.dianping.com/xiamen/ch10/g134r1834'
p2267
aS'http://www.dianping.com/xiamen/ch10/g223r1845'
p2268
aS'http://www.dianping.com/xiamen/ch10/g223r1844'
p2269
aS'http://www.dianping.com/xiamen/ch10/g223r1847'
p2270
aS'http://www.dianping.com/xiamen/ch10/g223r1843'
p2271
aS'http://www.dianping.com/xiamen/ch10/g4557r2008'
p2272
aS'http://www.dianping.com/xiamen/ch10/g32731r15656'
p2273
aS'http://www.dianping.com/xiamen/ch10/g32731r15655'
p2274
aS'http://www.dianping.com/xiamen/ch10/g32731r15654'
p2275
aS'http://www.dianping.com/xiamen/ch10/g32731r15653'
p2276
aS'http://www.dianping.com/xiamen/ch10/g32731r15652'
p2277
aS'http://www.dianping.com/xiamen/ch10/g32731r15651'
p2278
aS'http://www.dianping.com/xiamen/ch10/g32731r15650'
p2279
aS'http://www.dianping.com/xiamen/ch10/g33924r28549'
p2280
aS'http://www.dianping.com/xiamen/ch10/g26483r15655'
p2281
aS'http://www.dianping.com/xiamen/ch10/g134r70185'
p2282
aS'http://www.dianping.com/xiamen/ch10/g217r28273'
p2283
aS'http://www.dianping.com/xiamen/ch10/g217r28272'
p2284
aS'http://www.dianping.com/xiamen/ch10/g217r28271'
p2285
aS'http://www.dianping.com/xiamen/ch10/g217r28270'
p2286
aS'http://www.dianping.com/xiamen/ch10/g4557r15652'
p2287
aS'http://www.dianping.com/xiamen/ch10/g4557r15650'
p2288
aS'http://www.dianping.com/xiamen/ch10/g1881r1838'
p2289
aS'http://www.dianping.com/xiamen/ch10/g4557r15656'
p2290
aS'http://www.dianping.com/xiamen/ch10/g4557r15655'
p2291
aS'http://www.dianping.com/xiamen/ch10/g4557r15654'
p2292
aS'http://www.dianping.com/xiamen/ch10/g221r1844'
p2293
aS'http://www.dianping.com/xiamen/ch10/g1881r1835'
p2294
aS'http://www.dianping.com/xiamen/ch10/g1881r1836'
p2295
aS'http://www.dianping.com/xiamen/ch10/g1881r1837'
p2296
aS'http://www.dianping.com/xiamen/ch10/g1881r1830'
p2297
aS'http://www.dianping.com/xiamen/ch10/g1881r1831'
p2298
aS'http://www.dianping.com/xiamen/ch10/g1881r1832'
p2299
aS'http://www.dianping.com/xiamen/ch10/g1881r1833'
p2300
aS'http://www.dianping.com/xiamen/ch10/g4273r1842'
p2301
aS'http://www.dianping.com/xiamen/ch10/g241r1832'
p2302
aS'http://www.dianping.com/xiamen/ch10/g32733r25928'
p2303
aS'http://www.dianping.com/xiamen/ch10/g241r1835'
p2304
aS'http://www.dianping.com/xiamen/ch10/g241r1836'
p2305
aS'http://www.dianping.com/xiamen/ch10/g241r1837'
p2306
aS'http://www.dianping.com/xiamen/ch10/g27803r8085'
p2307
aS'http://www.dianping.com/xiamen/ch10/g1881r28549'
p2308
aS'http://www.dianping.com/xiamen/ch10/g27803r8087'
p2309
aS'http://www.dianping.com/xiamen/ch10/g238r1845'
p2310
aS'http://www.dianping.com/xiamen/ch10/g238r1844'
p2311
aS'http://www.dianping.com/xiamen/ch10/g238r1847'
p2312
aS'http://www.dianping.com/xiamen/ch10/g238r1840'
p2313
aS'http://www.dianping.com/xiamen/ch10/g238r1843'
p2314
aS'http://www.dianping.com/xiamen/ch10/g238r1842'
p2315
aS'http://www.dianping.com/xiamen/ch10/g34240r1845'
p2316
aS'http://www.dianping.com/xiamen/ch10/g223r88415'
p2317
aS'http://www.dianping.com/xiamen/ch10/g223r88417'
p2318
aS'http://www.dianping.com/xiamen/ch10/g4449r15653'
p2319
aS'http://www.dianping.com/xiamen/ch10/g4467r1840'
p2320
aS'http://www.dianping.com/xiamen/ch10/g4449r15651'
p2321
aS'http://www.dianping.com/xiamen/ch10/g221r15651'
p2322
aS'http://www.dianping.com/xiamen/ch10/g4449r15656'
p2323
aS'http://www.dianping.com/xiamen/ch10/g4449r15655'
p2324
aS'http://www.dianping.com/xiamen/ch10/g4449r15654'
p2325
aS'http://www.dianping.com/xiamen/ch10/g34246r70208'
p2326
aS'http://www.dianping.com/xiamen/ch10/g3243r28959'
p2327
aS'http://www.dianping.com/xiamen/ch10/g4557r25928'
p2328
aS'http://www.dianping.com/xiamen/ch10/g1821r15649'
p2329
aS'http://www.dianping.com/xiamen/ch10/g101r28963'
p2330
aS'http://www.dianping.com/xiamen/ch10/g2621r27090'
p2331
aS'http://www.dianping.com/xiamen/ch10/g1785r27090'
p2332
aS'http://www.dianping.com/xiamen/ch10/g27823r15656'
p2333
aS'http://www.dianping.com/xiamen/ch10/g27823r15655'
p2334
aS'http://www.dianping.com/xiamen/ch10/g4467r70185'
p2335
aS'http://www.dianping.com/xiamen/ch10/g27823r15653'
p2336
aS'http://www.dianping.com/xiamen/ch10/g27823r15652'
p2337
aS'http://www.dianping.com/xiamen/ch10/g27823r15650'
p2338
aS'http://www.dianping.com/xiamen/ch10/g105r1837'
p2339
aS'http://www.dianping.com/xiamen/ch10/g32733r70208'
p2340
aS'http://www.dianping.com/xiamen/ch10/g27823r11310'
p2341
aS'http://www.dianping.com/xiamen/ch10/g210r1843'
p2342
aS'http://www.dianping.com/xiamen/ch10/g210r1842'
p2343
aS'http://www.dianping.com/xiamen/ch10/g210r1840'
p2344
aS'http://www.dianping.com/xiamen/ch10/g210r1847'
p2345
aS'http://www.dianping.com/xiamen/ch10/g210r1846'
p2346
aS'http://www.dianping.com/xiamen/ch10/g210r1845'
p2347
aS'http://www.dianping.com/xiamen/ch10/g210r1844'
p2348
aS'http://www.dianping.com/xiamen/ch10/g4583r27090'
p2349
aS'http://www.dianping.com/xiamen/ch10/g205r1831'
p2350
aS'http://www.dianping.com/xiamen/ch10/g34223r27054'
p2351
aS'http://www.dianping.com/xiamen/ch10/g210r28887'
p2352
aS'http://www.dianping.com/xiamen/ch10/g1785r1838'
p2353
aS'http://www.dianping.com/xiamen/ch10/g4481r11310'
p2354
aS'http://www.dianping.com/xiamen/ch10/g4583r15655'
p2355
aS'http://www.dianping.com/xiamen/ch10/g205r1838'
p2356
aS'http://www.dianping.com/xiamen/ch10/g205r1839'
p2357
aS'http://www.dianping.com/xiamen/ch10/g4449r25928'
p2358
aS'http://www.dianping.com/xiamen/ch10/g1785r1833'
p2359
aS'http://www.dianping.com/xiamen/ch10/g2621r1846'
p2360
aS'http://www.dianping.com/xiamen/ch10/g2621r1847'
p2361
aS'http://www.dianping.com/xiamen/ch10/g2621r1844'
p2362
aS'http://www.dianping.com/xiamen/ch10/g2621r1845'
p2363
aS'http://www.dianping.com/xiamen/ch10/g2621r1842'
p2364
aS'http://www.dianping.com/xiamen/ch10/g2621r1843'
p2365
aS'http://www.dianping.com/xiamen/ch10/g2621r1840'
p2366
aS'http://www.dianping.com/xiamen/ch10/g4467r11310'
p2367
aS'http://www.dianping.com/xiamen/ch10/g134r27054'
p2368
aS'http://www.dianping.com/xiamen/ch10/g4447r28273'
p2369
aS'http://www.dianping.com/xiamen/ch10/g4447r28272'
p2370
aS'http://www.dianping.com/xiamen/ch10/g4447r28270'
p2371
aS'http://www.dianping.com/xiamen/ch10/g4583r15656'
p2372
aS'http://www.dianping.com/xiamen/ch10/g210r27447'
p2373
aS'http://www.dianping.com/xiamen/ch10/g210r27464'
p2374
aS'http://www.dianping.com/xiamen/ch10/g1805r1838'
p2375
aS'http://www.dianping.com/xiamen/ch10/g33924r15649'
p2376
aS'http://www.dianping.com/xiamen/ch10/g1805r1830'
p2377
aS'http://www.dianping.com/xiamen/ch10/g248r1847'
p2378
aS'http://www.dianping.com/xiamen/ch10/g1805r1836'
p2379
aS'http://www.dianping.com/xiamen/ch10/g1785r8374'
p2380
aS'http://www.dianping.com/xiamen/ch10/g222r1834'
p2381
aS'http://www.dianping.com/xiamen/ch10/g34243r27090'
p2382
aS'http://www.dianping.com/xiamen/ch10/g34243r28270'
p2383
aS'http://www.dianping.com/xiamen/ch10/g34243r28273'
p2384
aS'http://www.dianping.com/xiamen/ch10/g34243r28272'
p2385
aS'http://www.dianping.com/xiamen/ch10/g34243r28274'
p2386
aS'http://www.dianping.com/xiamen/ch10/g207r27054'
p2387
aS'http://www.dianping.com/xiamen/ch10/g4467r28959'
p2388
aS'http://www.dianping.com/xiamen/ch10/g203r88412'
p2389
aS'http://www.dianping.com/xiamen/ch10/g252r28960'
p2390
aS'http://www.dianping.com/xiamen/ch10/g3023r1833'
p2391
aS'http://www.dianping.com/xiamen/ch10/g34065r1839'
p2392
aS'http://www.dianping.com/xiamen/ch10/g3023r1830'
p2393
aS'http://www.dianping.com/xiamen/ch10/g4449r70185'
p2394
aS'http://www.dianping.com/xiamen/ch10/g3023r1836'
p2395
aS'http://www.dianping.com/xiamen/ch10/g3023r1837'
p2396
aS'http://www.dianping.com/xiamen/ch10/g34240r88415'
p2397
aS'http://www.dianping.com/xiamen/ch10/g238r85846'
p2398
aS'http://www.dianping.com/xiamen/ch10/g210r25928'
p2399
aS'http://www.dianping.com/xiamen/ch10/g3023r1834'
p2400
aS'http://www.dianping.com/xiamen/ch10/g34240r88412'
p2401
aS'http://www.dianping.com/xiamen/ch10/g33924r88437'
p2402
aS'http://www.dianping.com/xiamen/ch10/g4509r28963'
p2403
aS'http://www.dianping.com/xiamen/ch10/g34040r28964'
p2404
aS'http://www.dianping.com/xiamen/ch10/g24340r1845'
p2405
aS'http://www.dianping.com/xiamen/ch10/g24340r1844'
p2406
aS'http://www.dianping.com/xiamen/ch10/g24340r1847'
p2407
aS'http://www.dianping.com/xiamen/ch10/g24340r1846'
p2408
aS'http://www.dianping.com/xiamen/ch10/g134r8087'
p2409
aS'http://www.dianping.com/xiamen/ch10/g24340r1840'
p2410
aS'http://www.dianping.com/xiamen/ch10/g24340r1843'
p2411
aS'http://www.dianping.com/xiamen/ch10/g24340r1842'
p2412
aS'http://www.dianping.com/xiamen/ch10/g225r15649'
p2413
aS'http://www.dianping.com/xiamen/ch10/g4473r28273'
p2414
aS'http://www.dianping.com/xiamen/ch10/g34041r88412'
p2415
aS'http://www.dianping.com/xiamen/ch10/g34278r70208'
p2416
aS'http://www.dianping.com/xiamen/ch10/g34061r28961'
p2417
aS'http://www.dianping.com/xiamen/ch10/g4453r27447'
p2418
aS'http://www.dianping.com/xiamen/ch10/g2621r70185'
p2419
aS'http://www.dianping.com/xiamen/ch10/g208r88417'
p2420
aS'http://www.dianping.com/xiamen/ch10/g134r27464'
p2421
aS'http://www.dianping.com/xiamen/ch10/g4473r65208'
p2422
aS'http://www.dianping.com/xiamen/ch10/g4467r2007'
p2423
aS'http://www.dianping.com/xiamen/ch10/g34277r8374'
p2424
aS'http://www.dianping.com/xiamen/ch10/g34277r8375'
p2425
aS'http://www.dianping.com/xiamen/ch10/g133r70185'
p2426
aS'http://www.dianping.com/xiamen/ch10/g238r8087'
p2427
aS'http://www.dianping.com/xiamen/ch10/g238r8085'
p2428
aS'http://www.dianping.com/xiamen/ch10/g1821r27447'
p2429
aS'http://www.dianping.com/xiamen/ch10/g34065r1846'
p2430
aS'http://www.dianping.com/xiamen/ch10/g34244r8375'
p2431
aS'http://www.dianping.com/xiamen/ch10/g3243r15656'
p2432
aS'http://www.dianping.com/xiamen/ch10/g3023r1838'
p2433
aS'http://www.dianping.com/xiamen/ch10/g3023r1839'
p2434
aS'http://www.dianping.com/xiamen/ch10/g27801r27054'
p2435
aS'http://www.dianping.com/xiamen/ch10/g4509r28964'
p2436
aS'http://www.dianping.com/xiamen/ch10/g4509r28965'
p2437
aS'http://www.dianping.com/xiamen/ch10/g27803r28961'
p2438
aS'http://www.dianping.com/xiamen/ch10/g27803r28960'
p2439
aS'http://www.dianping.com/xiamen/ch10/g4509r28960'
p2440
aS'http://www.dianping.com/xiamen/ch10/g4509r28961'
p2441
aS'http://www.dianping.com/xiamen/ch10/g27803r28965'
p2442
aS'http://www.dianping.com/xiamen/ch10/g27803r28964'
p2443
aS'http://www.dianping.com/xiamen/ch10/g1785r8087'
p2444
aS'http://www.dianping.com/xiamen/ch10/g34277r88415'
p2445
aS'http://www.dianping.com/xiamen/ch10/g34246r88431'
p2446
aS'http://www.dianping.com/xiamen/ch10/g34246r88432'
p2447
aS'http://www.dianping.com/xiamen/ch10/g34246r88435'
p2448
aS'http://www.dianping.com/xiamen/ch10/g34246r88437'
p2449
aS'http://www.dianping.com/xiamen/ch10/g210r2008'
p2450
aS'http://www.dianping.com/xiamen/ch10/g34244r28962'
p2451
aS'http://www.dianping.com/xiamen/ch10/g4557r88403'
p2452
aS'http://www.dianping.com/xiamen/ch10/g133r25928'
p2453
aS'http://www.dianping.com/xiamen/ch10/g210r2007'
p2454
aS'http://www.dianping.com/xiamen/ch10/g238r28887'
p2455
aS'http://www.dianping.com/xiamen/ch10/g224r15649'
p2456
aS'http://www.dianping.com/xiamen/ch10/g4481r2008'
p2457
aS'http://www.dianping.com/xiamen/ch10/g241r85846'
p2458
aS'http://www.dianping.com/xiamen/ch10/g27823r1839'
p2459
aS'http://www.dianping.com/xiamen/ch10/g27823r1838'
p2460
aS'http://www.dianping.com/xiamen/ch10/g4593r88404'
p2461
aS'http://www.dianping.com/xiamen/ch10/g27823r1834'
p2462
aS'http://www.dianping.com/xiamen/ch10/g27823r1837'
p2463
aS'http://www.dianping.com/xiamen/ch10/g27823r1836'
p2464
aS'http://www.dianping.com/xiamen/ch10/g27823r1831'
p2465
aS'http://www.dianping.com/xiamen/ch10/g27823r1830'
p2466
aS'http://www.dianping.com/xiamen/ch10/g27823r1833'
p2467
aS'http://www.dianping.com/xiamen/ch10/g133r28963'
p2468
aS'http://www.dianping.com/xiamen/ch10/g34225r1835'
p2469
aS'http://www.dianping.com/xiamen/ch10/g34225r1834'
p2470
aS'http://www.dianping.com/xiamen/ch10/g34225r1836'
p2471
aS'http://www.dianping.com/xiamen/ch10/g34225r1832'
p2472
aS'http://www.dianping.com/xiamen/ch10/g1881r88421'
p2473
aS'http://www.dianping.com/xiamen/ch10/g34225r1838'
p2474
aS'http://www.dianping.com/xiamen/ch10/g34065r1832'
p2475
aS'http://www.dianping.com/xiamen/ch10/g1821r88405'
p2476
aS'http://www.dianping.com/xiamen/ch10/g1821r88404'
p2477
aS'http://www.dianping.com/xiamen/ch10/g1821r88407'
p2478
aS'http://www.dianping.com/xiamen/ch10/g4449r88407'
p2479
aS'http://www.dianping.com/xiamen/ch10/g1821r88401'
p2480
aS'http://www.dianping.com/xiamen/ch10/g4449r88401'
p2481
aS'http://www.dianping.com/xiamen/ch10/g1821r88403'
p2482
aS'http://www.dianping.com/xiamen/ch10/g34241r8373'
p2483
aS'http://www.dianping.com/xiamen/ch10/g2621r8375'
p2484
aS'http://www.dianping.com/xiamen/ch10/g2621r8374'
p2485
aS'http://www.dianping.com/xiamen/ch10/g2621r8373'
p2486
aS'http://www.dianping.com/xiamen/ch10/g4449r88409'
p2487
aS'http://www.dianping.com/xiamen/ch10/g34060r27054'
p2488
aS'http://www.dianping.com/xiamen/ch10/g32731r88431'
p2489
aS'http://www.dianping.com/xiamen/ch10/g32731r88432'
p2490
aS'http://www.dianping.com/xiamen/ch10/g32731r88435'
p2491
aS'http://www.dianping.com/xiamen/ch10/g4583r70208'
p2492
aS'http://www.dianping.com/xiamen/ch10/g2823r8085'
p2493
aS'http://www.dianping.com/xiamen/ch10/g27804r8375'
p2494
aS'http://www.dianping.com/xiamen/ch10/g4447r27447'
p2495
aS'http://www.dianping.com/xiamen/ch10/g252r1840'
p2496
aS'http://www.dianping.com/xiamen/ch10/g24340r11310'
p2497
aS'http://www.dianping.com/xiamen/ch10/g27801r15655'
p2498
aS'http://www.dianping.com/xiamen/ch10/g27801r15654'
p2499
aS'http://www.dianping.com/xiamen/ch10/g27801r15652'
p2500
aS'http://www.dianping.com/xiamen/ch10/g27801r15651'
p2501
aS'http://www.dianping.com/xiamen/ch10/g27801r15650'
p2502
aS'http://www.dianping.com/xiamen/ch10/g205r28549'
p2503
aS'http://www.dianping.com/xiamen/ch10/g34279r27054'
p2504
aS'http://www.dianping.com/xiamen/ch10/g250'
p2505
aS'http://www.dianping.com/xiamen/ch10/g3027r15654'
p2506
aS'http://www.dianping.com/xiamen/ch10/g32727r1830'
p2507
aS'http://www.dianping.com/xiamen/ch10/g3027r15655'
p2508
aS'http://www.dianping.com/xiamen/ch10/g3027r15652'
p2509
aS'http://www.dianping.com/xiamen/ch10/g34223r88403'
p2510
aS'http://www.dianping.com/xiamen/ch10/g34241r2008'
p2511
aS'http://www.dianping.com/xiamen/ch10/g34226r28272'
p2512
aS'http://www.dianping.com/xiamen/ch10/g3017r28964'
p2513
aS'http://www.dianping.com/xiamen/ch10/g207r15650'
p2514
aS'http://www.dianping.com/xiamen/ch10/g3027r15651'
p2515
aS'http://www.dianping.com/xiamen/ch10/g3017r28961'
p2516
aS'http://www.dianping.com/xiamen/ch10/g3017r28963'
p2517
aS'http://www.dianping.com/xiamen/ch10/g207r15655'
p2518
aS'http://www.dianping.com/xiamen/ch10/g27823r1835'
p2519
aS'http://www.dianping.com/xiamen/ch10/g25474'
p2520
aS'http://www.dianping.com/xiamen/ch10/g4509r2008'
p2521
aS'http://www.dianping.com/xiamen/ch10/g223r88404'
p2522
aS'http://www.dianping.com/xiamen/ch10/g223r88403'
p2523
aS'http://www.dianping.com/xiamen/ch10/g4583r1844'
p2524
aS'http://www.dianping.com/xiamen/ch10/g4583r1847'
p2525
aS'http://www.dianping.com/xiamen/ch10/g34277r15655'
p2526
aS'http://www.dianping.com/xiamen/ch10/g34277r15652'
p2527
aS'http://www.dianping.com/xiamen/ch10/g4509r2007'
p2528
aS'http://www.dianping.com/xiamen/ch10/g34277r15650'
p2529
aS'http://www.dianping.com/xiamen/ch10/g207r15652'
p2530
aS'http://www.dianping.com/xiamen/ch10/g1821r15652'
p2531
aS'http://www.dianping.com/xiamen/ch10/g1821r15650'
p2532
aS'http://www.dianping.com/xiamen/ch10/g1821r15651'
p2533
aS'http://www.dianping.com/xiamen/ch10/g1821r15656'
p2534
aS'http://www.dianping.com/xiamen/ch10/g1821r15654'
p2535
aS'http://www.dianping.com/xiamen/ch10/g1821r15655'
p2536
aS'http://www.dianping.com/xiamen/ch10/g238r2008'
p2537
aS'http://www.dianping.com/xiamen/ch10/g4449r15649'
p2538
aS'http://www.dianping.com/xiamen/ch10/g34032'
p2539
aS'http://www.dianping.com/xiamen/ch10/g34040r15652'
p2540
aS'http://www.dianping.com/xiamen/ch10/g34040r15651'
p2541
aS'http://www.dianping.com/xiamen/ch10/g210r27054'
p2542
aS'http://www.dianping.com/xiamen/ch10/g3023r25928'
p2543
aS'http://www.dianping.com/xiamen/ch10/g134r30823'
p2544
aS'http://www.dianping.com/xiamen/ch10/g34245r28965'
p2545
aS'http://www.dianping.com/xiamen/ch10/g34245r28964'
p2546
aS'http://www.dianping.com/xiamen/ch10/g34245r28963'
p2547
aS'http://www.dianping.com/xiamen/ch10/g34245r28962'
p2548
aS'http://www.dianping.com/xiamen/ch10/g34245r28961'
p2549
aS'http://www.dianping.com/xiamen/ch10/g34245r28960'
p2550
aS'http://www.dianping.com/xiamen/ch10/g3017r15656'
p2551
aS'http://www.dianping.com/xiamen/ch10/g3017r15655'
p2552
aS'http://www.dianping.com/xiamen/ch10/g3017r15654'
p2553
aS'http://www.dianping.com/xiamen/ch10/g3017r15653'
p2554
aS'http://www.dianping.com/xiamen/ch10/g3017r15652'
p2555
aS'http://www.dianping.com/xiamen/ch10/g3017r15650'
p2556
aS'http://www.dianping.com/xiamen/ch10/g4453r2007'
p2557
aS'http://www.dianping.com/xiamen/ch10/g1453r88409'
p2558
aS'http://www.dianping.com/xiamen/ch10/g27803r28963'
p2559
aS'http://www.dianping.com/xiamen/ch10/g34240r28270'
p2560
aS'http://www.dianping.com/xiamen/ch10/g4453r2008'
p2561
aS'http://www.dianping.com/xiamen/ch10/g34280r8087'
p2562
aS'http://www.dianping.com/xiamen/ch10/g4273r70208'
p2563
aS'http://www.dianping.com/xiamen/ch10/g109r8085'
p2564
aS'http://www.dianping.com/xiamen/ch10/g34237r88435'
p2565
aS'http://www.dianping.com/xiamen/ch10/g2887r8085'
p2566
aS'http://www.dianping.com/xiamen/ch10/g34237r88437'
p2567
aS'http://www.dianping.com/xiamen/ch10/g221r85846'
p2568
aS'http://www.dianping.com/xiamen/ch10/g34237r88431'
p2569
aS'http://www.dianping.com/xiamen/ch10/g34237r88432'
p2570
aS'http://www.dianping.com/xiamen/ch10/g4449r88404'
p2571
aS'http://www.dianping.com/xiamen/ch10/g105r15655'
p2572
aS'http://www.dianping.com/xiamen/ch10/g105r15654'
p2573
aS'http://www.dianping.com/xiamen/ch10/g4593r1839'
p2574
aS'http://www.dianping.com/xiamen/ch10/g34063r28549'
p2575
aS'http://www.dianping.com/xiamen/ch10/g105r15650'
p2576
aS'http://www.dianping.com/xiamen/ch10/g223r65208'
p2577
aS'http://www.dianping.com/xiamen/ch10/g34240r8087'
p2578
aS'http://www.dianping.com/xiamen/ch10/g34240r8085'
p2579
aS'http://www.dianping.com/xiamen/ch10/g4597r88417'
p2580
aS'http://www.dianping.com/xiamen/ch10/g34240r2007'
p2581
aS'http://www.dianping.com/xiamen/ch10/g733'
p2582
aS'http://www.dianping.com/xiamen/ch10/g32731r28549'
p2583
aS'http://www.dianping.com/xiamen/ch10/g34240r8374'
p2584
aS'http://www.dianping.com/xiamen/ch10/g34240r8375'
p2585
aS'http://www.dianping.com/xiamen/ch10/g26482r1842'
p2586
aS'http://www.dianping.com/xiamen/ch10/g252r88404'
p2587
aS'http://www.dianping.com/xiamen/ch10/g26482r1844'
p2588
aS'http://www.dianping.com/xiamen/ch10/g34240r8373'
p2589
aS'http://www.dianping.com/xiamen/ch10/g4593r1840'
p2590
aS'http://www.dianping.com/xiamen/ch10/g34243r2007'
p2591
aS'http://www.dianping.com/xiamen/ch10/g1785r27447'
p2592
aS'http://www.dianping.com/xiamen/ch10/g32723r27090'
p2593
aS'http://www.dianping.com/xiamen/ch10/g34243r2008'
p2594
aS'http://www.dianping.com/xiamen/ch10/g133r8373'
p2595
aS'http://www.dianping.com/xiamen/ch10/g4583r28272'
p2596
aS'http://www.dianping.com/xiamen/ch10/g133r8375'
p2597
aS'http://www.dianping.com/xiamen/ch10/g4583r28270'
p2598
aS'http://www.dianping.com/xiamen/ch10/g1821r88409'
p2599
aS'http://www.dianping.com/xiamen/ch10/g34240r15649'
p2600
aS'http://www.dianping.com/xiamen/ch10/g34240r88407'
p2601
aS'http://www.dianping.com/xiamen/ch10/g34240r88405'
p2602
aS'http://www.dianping.com/xiamen/ch10/g34240r88404'
p2603
aS'http://www.dianping.com/xiamen/ch10/g34240r88403'
p2604
aS'http://www.dianping.com/xiamen/ch10/g34240r88401'
p2605
aS'http://www.dianping.com/xiamen/ch10/g26483r1842'
p2606
aS'http://www.dianping.com/xiamen/ch10/g205r8373'
p2607
aS'http://www.dianping.com/xiamen/ch10/g223r2007'
p2608
aS'http://www.dianping.com/xiamen/ch10/g34224r1836'
p2609
aS'http://www.dianping.com/xiamen/ch10/g248r88431'
p2610
aS'http://www.dianping.com/xiamen/ch10/g109r15650'
p2611
aS'http://www.dianping.com/xiamen/ch10/g109r15656'
p2612
aS'http://www.dianping.com/xiamen/ch10/g109r15655'
p2613
aS'http://www.dianping.com/xiamen/ch10/g109r15654'
p2614
aS'http://www.dianping.com/xiamen/ch10/g1881r28964'
p2615
aS'http://www.dianping.com/xiamen/ch10/g1881r28965'
p2616
aS'http://www.dianping.com/xiamen/ch10/g1881r28960'
p2617
aS'http://www.dianping.com/xiamen/ch10/g1881r28961'
p2618
aS'http://www.dianping.com/xiamen/ch10/g3027r88412'
p2619
aS'http://www.dianping.com/xiamen/ch10/g1785r1839'
p2620
aS'http://www.dianping.com/xiamen/ch10/g27803r88403'
p2621
aS'http://www.dianping.com/xiamen/ch10/g105r27090'
p2622
aS'http://www.dianping.com/xiamen/ch10/g25151r28549'
p2623
aS'http://www.dianping.com/xiamen/ch10/g34061r1833'
p2624
aS'http://www.dianping.com/xiamen/ch10/g4447r85846'
p2625
aS'http://www.dianping.com/xiamen/ch10/g27803r1845'
p2626
aS'http://www.dianping.com/xiamen/ch10/g133r1838'
p2627
aS'http://www.dianping.com/xiamen/ch10/g133r1839'
p2628
aS'http://www.dianping.com/xiamen/ch10/g133r1834'
p2629
aS'http://www.dianping.com/xiamen/ch10/g27803r1842'
p2630
aS'http://www.dianping.com/xiamen/ch10/g133r1836'
p2631
aS'http://www.dianping.com/xiamen/ch10/g133r1837'
p2632
aS'http://www.dianping.com/xiamen/ch10/g4509r88403'
p2633
aS'http://www.dianping.com/xiamen/ch10/g133r1831'
p2634
aS'http://www.dianping.com/xiamen/ch10/g133r1832'
p2635
aS'http://www.dianping.com/xiamen/ch10/g27803r88407'
p2636
aS'http://www.dianping.com/xiamen/ch10/g32733r1847'
p2637
aS'http://www.dianping.com/xiamen/ch10/g32733r1844'
p2638
aS'http://www.dianping.com/xiamen/ch10/g27803r88404'
p2639
aS'http://www.dianping.com/xiamen/ch10/g254r8374'
p2640
aS'http://www.dianping.com/xiamen/ch10/g254r8375'
p2641
aS'http://www.dianping.com/xiamen/ch10/g27823r88401'
p2642
aS'http://www.dianping.com/xiamen/ch10/g1821r27054'
p2643
aS'http://www.dianping.com/xiamen/ch10/g26483r88432'
p2644
aS'http://www.dianping.com/xiamen/ch10/g27801r11310'
p2645
aS'http://www.dianping.com/xiamen/ch10/g134r28274'
p2646
aS'http://www.dianping.com/xiamen/ch10/g34041r15654'
p2647
aS'http://www.dianping.com/xiamen/ch10/g4509r28887'
p2648
aS'http://www.dianping.com/xiamen/ch10/g34041r15652'
p2649
aS'http://www.dianping.com/xiamen/ch10/g34041r15651'
p2650
aS'http://www.dianping.com/xiamen/ch10/g34243r88409'
p2651
aS'http://www.dianping.com/xiamen/ch10/g34240r27419'
p2652
aS'http://www.dianping.com/xiamen/ch10/g3027r1838'
p2653
aS'http://www.dianping.com/xiamen/ch10/g3027r1839'
p2654
aS'http://www.dianping.com/xiamen/ch10/g3027r1836'
p2655
aS'http://www.dianping.com/xiamen/ch10/g34243r88401'
p2656
aS'http://www.dianping.com/xiamen/ch10/g3027r1834'
p2657
aS'http://www.dianping.com/xiamen/ch10/g34243r88403'
p2658
aS'http://www.dianping.com/xiamen/ch10/g34243r88404'
p2659
aS'http://www.dianping.com/xiamen/ch10/g34243r88405'
p2660
aS'http://www.dianping.com/xiamen/ch10/g34243r88407'
p2661
aS'http://www.dianping.com/xiamen/ch10/g4509r28959'
p2662
aS'http://www.dianping.com/xiamen/ch10/g34246r27464'
p2663
aS'http://www.dianping.com/xiamen/ch10/g27803r28959'
p2664
aS'http://www.dianping.com/xiamen/ch10/g217r27090'
p2665
aS'http://www.dianping.com/xiamen/ch10/g4449r1838'
p2666
aS'http://www.dianping.com/xiamen/ch10/g25151r1840'
p2667
aS'http://www.dianping.com/xiamen/ch10/g2621r28274'
p2668
aS'http://www.dianping.com/xiamen/ch10/g2621r28272'
p2669
aS'http://www.dianping.com/xiamen/ch10/g25151r1846'
p2670
aS'http://www.dianping.com/xiamen/ch10/g2621r28270'
p2671
aS'http://www.dianping.com/xiamen/ch10/g109r27054'
p2672
aS'http://www.dianping.com/xiamen/ch10/g34246r88421'
p2673
aS'http://www.dianping.com/xiamen/ch10/g4557r88431'
p2674
aS'http://www.dianping.com/xiamen/ch10/g134r1830'
p2675
aS'http://www.dianping.com/xiamen/ch10/g1821r28272'
p2676
aS'http://www.dianping.com/xiamen/ch10/g1821r28273'
p2677
aS'http://www.dianping.com/xiamen/ch10/g1821r28274'
p2678
aS'http://www.dianping.com/xiamen/ch10/g34234r88404'
p2679
aS'http://www.dianping.com/xiamen/ch10/g252r8373'
p2680
aS'http://www.dianping.com/xiamen/ch10/g34237r28887'
p2681
aS'http://www.dianping.com/xiamen/ch10/g252r8375'
p2682
aS'http://www.dianping.com/xiamen/ch10/g217r27419'
p2683
aS'http://www.dianping.com/xiamen/ch10/g224r15653'
p2684
aS'http://www.dianping.com/xiamen/ch10/g224r15652'
p2685
aS'http://www.dianping.com/xiamen/ch10/g224r15651'
p2686
aS'http://www.dianping.com/xiamen/ch10/g3017r65208'
p2687
aS'http://www.dianping.com/xiamen/ch10/g224r15656'
p2688
aS'http://www.dianping.com/xiamen/ch10/g224r15655'
p2689
aS'http://www.dianping.com/xiamen/ch10/g210r1838'
p2690
aS'http://www.dianping.com/xiamen/ch10/g210r1839'
p2691
aS'http://www.dianping.com/xiamen/ch10/g3017r27464'
p2692
aS'http://www.dianping.com/xiamen/ch10/g26482r2008'
p2693
aS'http://www.dianping.com/xiamen/ch10/g34245r1837'
p2694
aS'http://www.dianping.com/xiamen/ch10/g34245r1836'
p2695
aS'http://www.dianping.com/xiamen/ch10/g34245r1835'
p2696
aS'http://www.dianping.com/xiamen/ch10/g34245r1834'
p2697
aS'http://www.dianping.com/xiamen/ch10/g1881r88432'
p2698
aS'http://www.dianping.com/xiamen/ch10/g34245r1832'
p2699
aS'http://www.dianping.com/xiamen/ch10/g34245r1831'
p2700
aS'http://www.dianping.com/xiamen/ch10/g1881r88431'
p2701
aS'http://www.dianping.com/xiamen/ch10/g210r15652'
p2702
aS'http://www.dianping.com/xiamen/ch10/g210r15653'
p2703
aS'http://www.dianping.com/xiamen/ch10/g210r15650'
p2704
aS'http://www.dianping.com/xiamen/ch10/g210r15651'
p2705
aS'http://www.dianping.com/xiamen/ch10/g210r15656'
p2706
aS'http://www.dianping.com/xiamen/ch10/g210r15654'
p2707
aS'http://www.dianping.com/xiamen/ch10/g34245r1838'
p2708
aS'http://www.dianping.com/xiamen/ch10/g1821r88412'
p2709
aS'http://www.dianping.com/xiamen/ch10/g34245r28549'
p2710
aS'http://www.dianping.com/xiamen/ch10/g224r8373'
p2711
aS'http://www.dianping.com/xiamen/ch10/g4449r88432'
p2712
aS'http://www.dianping.com/xiamen/ch10/g4449r88435'
p2713
aS'http://www.dianping.com/xiamen/ch10/g1821r88417'
p2714
aS'http://www.dianping.com/xiamen/ch10/g1821r88415'
p2715
aS'http://www.dianping.com/xiamen/ch10/g1821r88418'
p2716
aS'http://www.dianping.com/xiamen/ch10/g4481r15656'
p2717
aS'http://www.dianping.com/xiamen/ch10/g4481r15653'
p2718
aS'http://www.dianping.com/xiamen/ch10/g34245r15649'
p2719
aS'http://www.dianping.com/xiamen/ch10/g207r15651'
p2720
aS'http://www.dianping.com/xiamen/ch10/g134r2007'
p2721
aS'http://www.dianping.com/xiamen/ch10/g34234r27054'
p2722
aS'http://www.dianping.com/xiamen/ch10/g27801r15656'
p2723
aS'http://www.dianping.com/xiamen/ch10/g134r2008'
p2724
aS'http://www.dianping.com/xiamen/ch10/g4273r28963'
p2725
aS'http://www.dianping.com/xiamen/ch10/g25151r27090'
p2726
aS'http://www.dianping.com/xiamen/ch10/g4447r8373'
p2727
aS'http://www.dianping.com/xiamen/ch10/g34279r1837'
p2728
aS'http://www.dianping.com/xiamen/ch10/g222r27054'
p2729
aS'http://www.dianping.com/xiamen/ch10/g34279r1833'
p2730
aS'http://www.dianping.com/xiamen/ch10/g33924r28962'
p2731
aS'http://www.dianping.com/xiamen/ch10/g4447r27054'
p2732
aS'http://www.dianping.com/xiamen/ch10/g4583r27447'
p2733
aS'http://www.dianping.com/xiamen/ch10/g221r70185'
p2734
aS'http://www.dianping.com/xiamen/ch10/g33924r28964'
p2735
aS'http://www.dianping.com/xiamen/ch10/g32731r27447'
p2736
aS'http://www.dianping.com/xiamen/ch10/g34246r28887'
p2737
aS'http://www.dianping.com/xiamen/ch10/g4473r28549'
p2738
aS'http://www.dianping.com/xiamen/ch10/g27823r88435'
p2739
aS'http://www.dianping.com/xiamen/ch10/g34224r1837'
p2740
aS'http://www.dianping.com/xiamen/ch10/g34224r1830'
p2741
aS'http://www.dianping.com/xiamen/ch10/g2621r2007'
p2742
aS'http://www.dianping.com/xiamen/ch10/g4447r8375'
p2743
aS'http://www.dianping.com/xiamen/ch10/g32731r11310'
p2744
aS'http://www.dianping.com/xiamen/ch10/g2621r2008'
p2745
aS'http://www.dianping.com/xiamen/ch10/g34225r8374'
p2746
aS'http://www.dianping.com/xiamen/ch10/g4583r88415'
p2747
aS'http://www.dianping.com/xiamen/ch10/g3027r28960'
p2748
aS'http://www.dianping.com/xiamen/ch10/g3027r28961'
p2749
aS'http://www.dianping.com/xiamen/ch10/g3027r28962'
p2750
aS'http://www.dianping.com/xiamen/ch10/g32730r1835'
p2751
aS'http://www.dianping.com/xiamen/ch10/g3027r28964'
p2752
aS'http://www.dianping.com/xiamen/ch10/g3027r28965'
p2753
aS'http://www.dianping.com/xiamen/ch10/g32731r88401'
p2754
aS'http://www.dianping.com/xiamen/ch10/g32730r1833'
p2755
aS'http://www.dianping.com/xiamen/ch10/g252r70523'
p2756
aS'http://www.dianping.com/xiamen/ch10/g33924r88417'
p2757
aS'http://www.dianping.com/xiamen/ch10/g34225r8087'
p2758
aS'http://www.dianping.com/xiamen/ch10/g34225r8085'
p2759
aS'http://www.dianping.com/xiamen/ch10/g4469r28549'
p2760
aS'http://www.dianping.com/xiamen/ch10/g34245r30823'
p2761
aS'http://www.dianping.com/xiamen/ch10/g33759'
p2762
aS'http://www.dianping.com/xiamen/ch10/g134r88418'
p2763
aS'http://www.dianping.com/xiamen/ch10/g252r88432'
p2764
aS'http://www.dianping.com/xiamen/ch10/g27823r2008'
p2765
aS'http://www.dianping.com/xiamen/ch10/g4509r28549'
p2766
aS'http://www.dianping.com/xiamen/ch10/g34040r15649'
p2767
aS'http://www.dianping.com/xiamen/ch10/g1785r88415'
p2768
aS'http://www.dianping.com/xiamen/ch10/g254r11310'
p2769
aS'http://www.dianping.com/xiamen/ch10/g34243r64735'
p2770
aS'http://www.dianping.com/xiamen/ch10/g27823r70208'
p2771
aS'http://www.dianping.com/xiamen/ch10/g205r15652'
p2772
aS'http://www.dianping.com/xiamen/ch10/g205r15654'
p2773
aS'http://www.dianping.com/xiamen/ch10/g205r15655'
p2774
aS'http://www.dianping.com/xiamen/ch10/g205r15656'
p2775
aS'http://www.dianping.com/xiamen/ch10/g34245r28958'
p2776
aS'http://www.dianping.com/xiamen/ch10/g34245r28959'
p2777
aS'http://www.dianping.com/xiamen/ch10/g33924r1845'
p2778
aS'http://www.dianping.com/xiamen/ch10/g34060r88407'
p2779
aS'http://www.dianping.com/xiamen/ch10/g33924r1847'
p2780
aS'http://www.dianping.com/xiamen/ch10/g33924r1846'
p2781
aS'http://www.dianping.com/xiamen/ch10/g210r64735'
p2782
aS'http://www.dianping.com/xiamen/ch10/g33924r1840'
p2783
aS'http://www.dianping.com/xiamen/ch10/g33924r1843'
p2784
aS'http://www.dianping.com/xiamen/ch10/g33924r1842'
p2785
aS'http://www.dianping.com/xiamen/ch10/g34243r28887'
p2786
aS'http://www.dianping.com/xiamen/ch10/g1785r28270'
p2787
aS'http://www.dianping.com/xiamen/ch10/g4453r1843'
p2788
aS'http://www.dianping.com/xiamen/ch10/g4453r1842'
p2789
aS'http://www.dianping.com/xiamen/ch10/g4453r1840'
p2790
aS'http://www.dianping.com/xiamen/ch10/g4453r1847'
p2791
aS'http://www.dianping.com/xiamen/ch10/g4453r1846'
p2792
aS'http://www.dianping.com/xiamen/ch10/g4453r1845'
p2793
aS'http://www.dianping.com/xiamen/ch10/g4453r1844'
p2794
aS'http://www.dianping.com/xiamen/ch10/g34237r88421'
p2795
aS'http://www.dianping.com/xiamen/ch10/g34246r1832'
p2796
aS'http://www.dianping.com/xiamen/ch10/g34246r1833'
p2797
aS'http://www.dianping.com/xiamen/ch10/g4557r28549'
p2798
aS'http://www.dianping.com/xiamen/ch10/g34246r1831'
p2799
aS'http://www.dianping.com/xiamen/ch10/g34246r1836'
p2800
aS'http://www.dianping.com/xiamen/ch10/g34246r1837'
p2801
aS'http://www.dianping.com/xiamen/ch10/g34246r1834'
p2802
aS'http://www.dianping.com/xiamen/ch10/g34246r1835'
p2803
aS'http://www.dianping.com/xiamen/ch10/g4583r88407'
p2804
aS'http://www.dianping.com/xiamen/ch10/g34246r1838'
p2805
aS'http://www.dianping.com/xiamen/ch10/g34246r1839'
p2806
aS'http://www.dianping.com/xiamen/ch10/g27801r28549'
p2807
aS'http://www.dianping.com/xiamen/ch10/g225r11310'
p2808
aS'http://www.dianping.com/xiamen/ch10/g27823r27447'
p2809
aS'http://www.dianping.com/xiamen/ch10/g34040r28549'
p2810
aS'http://www.dianping.com/xiamen/ch10/g222r28959'
p2811
aS'http://www.dianping.com/xiamen/ch10/g25151r8085'
p2812
aS'http://www.dianping.com/xiamen/ch10/g254r70208'
p2813
aS'http://www.dianping.com/xiamen/ch10/g134r85846'
p2814
aS'http://www.dianping.com/xiamen/ch10/g33916r1835'
p2815
aS'http://www.dianping.com/xiamen/ch10/g4449r28549'
p2816
aS'http://www.dianping.com/xiamen/ch10/g252r1835'
p2817
aS'http://www.dianping.com/xiamen/ch10/g3243r2007'
p2818
aS'http://www.dianping.com/xiamen/ch10/g1805r27447'
p2819
aS'http://www.dianping.com/xiamen/ch10/g252r1836'
p2820
aS'http://www.dianping.com/xiamen/ch10/g224r27090'
p2821
aS'http://www.dianping.com/xiamen/ch10/g34061r2008'
p2822
aS'http://www.dianping.com/xiamen/ch10/g4469r65208'
p2823
aS'http://www.dianping.com/xiamen/ch10/g4473r15649'
p2824
aS'http://www.dianping.com/xiamen/ch10/g101r1830'
p2825
aS'http://www.dianping.com/xiamen/ch10/g252r1830'
p2826
aS'http://www.dianping.com/xiamen/ch10/g34240r88431'
p2827
aS'http://www.dianping.com/xiamen/ch10/g252r65208'
p2828
aS'http://www.dianping.com/xiamen/ch10/g34240r88437'
p2829
aS'http://www.dianping.com/xiamen/ch10/g34240r88435'
p2830
aS'http://www.dianping.com/xiamen/ch10/g222r65208'
p2831
aS'http://www.dianping.com/xiamen/ch10/g207r28273'
p2832
aS'http://www.dianping.com/xiamen/ch10/g252r1832'
p2833
aS'http://www.dianping.com/xiamen/ch10/g4509r70523'
p2834
aS'http://www.dianping.com/xiamen/ch10/g222r2007'
p2835
aS'http://www.dianping.com/xiamen/ch10/g4597r28549'
p2836
aS'http://www.dianping.com/xiamen/ch10/g27823r28270'
p2837
aS'http://www.dianping.com/xiamen/ch10/g3023r65208'
p2838
aS'http://www.dianping.com/xiamen/ch10/g222r2008'
p2839
aS'http://www.dianping.com/xiamen/ch10/g223r25928'
p2840
aS'http://www.dianping.com/xiamen/ch10/g4469r15655'
p2841
aS'http://www.dianping.com/xiamen/ch10/g4469r15654'
p2842
aS'http://www.dianping.com/xiamen/ch10/g4469r15656'
p2843
aS'http://www.dianping.com/xiamen/ch10/g4469r15651'
p2844
aS'http://www.dianping.com/xiamen/ch10/g4469r15650'
p2845
aS'http://www.dianping.com/xiamen/ch10/g4469r15653'
p2846
aS'http://www.dianping.com/xiamen/ch10/g208r1838'
p2847
aS'http://www.dianping.com/xiamen/ch10/g208r1837'
p2848
aS'http://www.dianping.com/xiamen/ch10/g208r1836'
p2849
aS'http://www.dianping.com/xiamen/ch10/g224r1846'
p2850
aS'http://www.dianping.com/xiamen/ch10/g34243r27419'
p2851
aS'http://www.dianping.com/xiamen/ch10/g208r1833'
p2852
aS'http://www.dianping.com/xiamen/ch10/g208r1832'
p2853
aS'http://www.dianping.com/xiamen/ch10/g208r1831'
p2854
aS'http://www.dianping.com/xiamen/ch10/g224r1843'
p2855
aS'http://www.dianping.com/xiamen/ch10/g32723r28959'
p2856
aS'http://www.dianping.com/xiamen/ch10/g1881r2008'
p2857
aS'http://www.dianping.com/xiamen/ch10/g210r8085'
p2858
aS'http://www.dianping.com/xiamen/ch10/g226r8087'
p2859
aS'http://www.dianping.com/xiamen/ch10/g210r8087'
p2860
aS'http://www.dianping.com/xiamen/ch10/g133r1840'
p2861
aS'http://www.dianping.com/xiamen/ch10/g133r1843'
p2862
aS'http://www.dianping.com/xiamen/ch10/g1881r2007'
p2863
aS'http://www.dianping.com/xiamen/ch10/g133r1845'
p2864
aS'http://www.dianping.com/xiamen/ch10/g133r1844'
p2865
aS'http://www.dianping.com/xiamen/ch10/g34065r28961'
p2866
aS'http://www.dianping.com/xiamen/ch10/g133r1846'
p2867
aS'http://www.dianping.com/xiamen/ch10/g32733r1833'
p2868
aS'http://www.dianping.com/xiamen/ch10/g217r88407'
p2869
aS'http://www.dianping.com/xiamen/ch10/g217r88404'
p2870
aS'http://www.dianping.com/xiamen/ch10/g217r88405'
p2871
aS'http://www.dianping.com/xiamen/ch10/g32733r1837'
p2872
aS'http://www.dianping.com/xiamen/ch10/g217r88403'
p2873
aS'http://www.dianping.com/xiamen/ch10/g32733r1835'
p2874
aS'http://www.dianping.com/xiamen/ch10/g217r88401'
p2875
aS'http://www.dianping.com/xiamen/ch10/g32733r1839'
p2876
aS'http://www.dianping.com/xiamen/ch10/g32733r1838'
p2877
aS'http://www.dianping.com/xiamen/ch10/g217r88409'
p2878
aS'http://www.dianping.com/xiamen/ch10/g34246r28964'
p2879
aS'http://www.dianping.com/xiamen/ch10/g34246r28965'
p2880
aS'http://www.dianping.com/xiamen/ch10/g32731r25928'
p2881
aS'http://www.dianping.com/xiamen/ch10/g34246r28960'
p2882
aS'http://www.dianping.com/xiamen/ch10/g34246r28961'
p2883
aS'http://www.dianping.com/xiamen/ch10/g34246r28963'
p2884
aS'http://www.dianping.com/xiamen/ch10/g24340r15650'
p2885
aS'http://www.dianping.com/xiamen/ch10/g24340r15651'
p2886
aS'http://www.dianping.com/xiamen/ch10/g24340r15652'
p2887
aS'http://www.dianping.com/xiamen/ch10/g24340r15653'
p2888
aS'http://www.dianping.com/xiamen/ch10/g24340r15654'
p2889
aS'http://www.dianping.com/xiamen/ch10/g24340r15655'
p2890
aS'http://www.dianping.com/xiamen/ch10/g24340r15656'
p2891
aS'http://www.dianping.com/xiamen/ch10/g34243r88418'
p2892
aS'http://www.dianping.com/xiamen/ch10/g3243r28270'
p2893
aS'http://www.dianping.com/xiamen/ch10/g3243r28272'
p2894
aS'http://www.dianping.com/xiamen/ch10/g34243r88412'
p2895
aS'http://www.dianping.com/xiamen/ch10/g34243r88417'
p2896
aS'http://www.dianping.com/xiamen/ch10/g34243r88415'
p2897
aS'http://www.dianping.com/xiamen/ch10/g203r88435'
p2898
aS'http://www.dianping.com/xiamen/ch10/g4477r88403'
p2899
aS'http://www.dianping.com/xiamen/ch10/g1947r1838'
p2900
aS'http://www.dianping.com/xiamen/ch10/g34278r1847'
p2901
aS'http://www.dianping.com/xiamen/ch10/g34246r88418'
p2902
aS'http://www.dianping.com/xiamen/ch10/g34246r88417'
p2903
aS'http://www.dianping.com/xiamen/ch10/g34246r88415'
p2904
aS'http://www.dianping.com/xiamen/ch10/g34246r88412'
p2905
aS'http://www.dianping.com/xiamen/ch10/g4557r28959'
p2906
aS'http://www.dianping.com/xiamen/ch10/g224r27447'
p2907
aS'http://www.dianping.com/xiamen/ch10/g32723r11310'
p2908
aS'http://www.dianping.com/xiamen/ch10/g27801r65208'
p2909
aS'http://www.dianping.com/xiamen/ch10/g222r1842'
p2910
aS'http://www.dianping.com/xiamen/ch10/g222r1843'
p2911
aS'http://www.dianping.com/xiamen/ch10/g222r1840'
p2912
aS'http://www.dianping.com/xiamen/ch10/g27804r88415'
p2913
aS'http://www.dianping.com/xiamen/ch10/g222r1846'
p2914
aS'http://www.dianping.com/xiamen/ch10/g222r1847'
p2915
aS'http://www.dianping.com/xiamen/ch10/g222r1844'
p2916
aS'http://www.dianping.com/xiamen/ch10/g222r1845'
p2917
aS'http://www.dianping.com/xiamen/ch10/g4473r88432'
p2918
aS'http://www.dianping.com/xiamen/ch10/g4477r25928'
p2919
aS'http://www.dianping.com/xiamen/ch10/g25151r1830'
p2920
aS'http://www.dianping.com/xiamen/ch10/g210r15649'
p2921
aS'http://www.dianping.com/xiamen/ch10/g32723r1839'
p2922
aS'http://www.dianping.com/xiamen/ch10/g4509r88431'
p2923
aS'http://www.dianping.com/xiamen/ch10/g4447r1839'
p2924
aS'http://www.dianping.com/xiamen/ch10/g224r88403'
p2925
aS'http://www.dianping.com/xiamen/ch10/g25151r1835'
p2926
aS'http://www.dianping.com/xiamen/ch10/g4447r1838'
p2927
aS'http://www.dianping.com/xiamen/ch10/g2621r8085'
p2928
aS'http://www.dianping.com/xiamen/ch10/g4449r28959'
p2929
aS'http://www.dianping.com/xiamen/ch10/g2621r8087'
p2930
aS'http://www.dianping.com/xiamen/ch10/g4449r88421'
p2931
aS'http://www.dianping.com/xiamen/ch10/g33924r70523'
p2932
aS'http://www.dianping.com/xiamen/ch10/g207r2008'
p2933
aS'http://www.dianping.com/xiamen/ch10/g33924r27447'
p2934
aS'http://www.dianping.com/xiamen/ch10/g34243r27054'
p2935
aS'http://www.dianping.com/xiamen/ch10/g32730r25928'
p2936
aS'http://www.dianping.com/xiamen/ch10/g34041r8373'
p2937
aS'http://www.dianping.com/xiamen/ch10/g207r2007'
p2938
aS'http://www.dianping.com/xiamen/ch10/g4351r28549'
p2939
aS'http://www.dianping.com/xiamen/ch10/g34244r1840'
p2940
aS'http://www.dianping.com/xiamen/ch10/g34240r88421'
p2941
aS'http://www.dianping.com/xiamen/ch10/g4509r70185'
p2942
aS'http://www.dianping.com/xiamen/ch10/g34245r15651'
p2943
aS'http://www.dianping.com/xiamen/ch10/g34245r15650'
p2944
aS'http://www.dianping.com/xiamen/ch10/g34245r15653'
p2945
aS'http://www.dianping.com/xiamen/ch10/g34245r15652'
p2946
aS'http://www.dianping.com/xiamen/ch10/g34245r15655'
p2947
aS'http://www.dianping.com/xiamen/ch10/g34245r15654'
p2948
aS'http://www.dianping.com/xiamen/ch10/g34245r15656'
p2949
aS'http://www.dianping.com/xiamen/ch10/g101r28965'
p2950
aS'http://www.dianping.com/xiamen/ch10/g4477r28962'
p2951
aS'http://www.dianping.com/xiamen/ch10/g4447r1830'
p2952
aS'http://www.dianping.com/xiamen/ch10/g101r28961'
p2953
aS'http://www.dianping.com/xiamen/ch10/g101r28960'
p2954
aS'http://www.dianping.com/xiamen/ch10/g4453r65208'
p2955
aS'http://www.dianping.com/xiamen/ch10/g4583r1846'
p2956
aS'http://www.dianping.com/xiamen/ch10/g4449r1840'
p2957
aS'http://www.dianping.com/xiamen/ch10/g4449r1842'
p2958
aS'http://www.dianping.com/xiamen/ch10/g221r11310'
p2959
aS'http://www.dianping.com/xiamen/ch10/g4449r1844'
p2960
aS'http://www.dianping.com/xiamen/ch10/g4449r1845'
p2961
aS'http://www.dianping.com/xiamen/ch10/g4449r1846'
p2962
aS'http://www.dianping.com/xiamen/ch10/g4449r1847'
p2963
aS'http://www.dianping.com/xiamen/ch10/g134r1840'
p2964
aS'http://www.dianping.com/xiamen/ch10/g252r15654'
p2965
aS'http://www.dianping.com/xiamen/ch10/g134r1842'
p2966
aS'http://www.dianping.com/xiamen/ch10/g134r1843'
p2967
aS'http://www.dianping.com/xiamen/ch10/g238r28272'
p2968
aS'http://www.dianping.com/xiamen/ch10/g238r28273'
p2969
aS'http://www.dianping.com/xiamen/ch10/g238r28270'
p2970
aS'http://www.dianping.com/xiamen/ch10/g238r28271'
p2971
aS'http://www.dianping.com/xiamen/ch10/g252r15656'
p2972
aS'http://www.dianping.com/xiamen/ch10/g34246r28549'
p2973
aS'http://www.dianping.com/xiamen/ch10/g4467r27447'
p2974
aS'http://www.dianping.com/xiamen/ch10/g34237r25928'
p2975
aS'http://www.dianping.com/xiamen/ch10/g32733r15649'
p2976
aS'http://www.dianping.com/xiamen/ch10/g34061r25928'
p2977
aS'http://www.dianping.com/xiamen/ch10/g217r28887'
p2978
aS'http://www.dianping.com/xiamen/ch10/g203r1844'
p2979
aS'http://www.dianping.com/xiamen/ch10/g4449r2007'
p2980
aS'http://www.dianping.com/xiamen/ch10/g4449r2008'
p2981
aS'http://www.dianping.com/xiamen/ch10/g34234r8374'
p2982
aS'http://www.dianping.com/xiamen/ch10/g4509r88435'
p2983
aS'http://www.dianping.com/xiamen/ch10/g207r88415'
p2984
aS'http://www.dianping.com/xiamen/ch10/g32731r1845'
p2985
aS'http://www.dianping.com/xiamen/ch10/g34060r28549'
p2986
aS'http://www.dianping.com/xiamen/ch10/g1881r64735'
p2987
aS'http://www.dianping.com/xiamen/ch10/g238r2007'
p2988
aS'http://www.dianping.com/xiamen/ch10/g33916r1840'
p2989
aS'http://www.dianping.com/xiamen/ch10/g34243r30823'
p2990
aS'http://www.dianping.com/xiamen/ch10/g217r1837'
p2991
aS'http://www.dianping.com/xiamen/ch10/g217r1836'
p2992
aS'http://www.dianping.com/xiamen/ch10/g217r1835'
p2993
aS'http://www.dianping.com/xiamen/ch10/g217r1834'
p2994
aS'http://www.dianping.com/xiamen/ch10/g217r1833'
p2995
aS'http://www.dianping.com/xiamen/ch10/g217r1832'
p2996
aS'http://www.dianping.com/xiamen/ch10/g217r1831'
p2997
aS'http://www.dianping.com/xiamen/ch10/g217r1830'
p2998
aS'http://www.dianping.com/xiamen/ch10/g32731r1840'
p2999
aS'http://www.dianping.com/xiamen/ch10/g217r1839'
p3000
aS'http://www.dianping.com/xiamen/ch10/g217r1838'
p3001
aS'http://www.dianping.com/xiamen/ch10/g208r25928'
p3002
aS'http://www.dianping.com/xiamen/ch10/g32731r1842'
p3003
aS'http://www.dianping.com/xiamen/ch10/g32731r1843'
p3004
aS'http://www.dianping.com/xiamen/ch10/g133r28964'
p3005
aS'http://www.dianping.com/xiamen/ch10/g32731r65208'
p3006
aS'http://www.dianping.com/xiamen/ch10/g34040r1838'
p3007
aS'http://www.dianping.com/xiamen/ch10/g3027r28958'
p3008
aS'http://www.dianping.com/xiamen/ch10/g133r28960'
p3009
aS'http://www.dianping.com/xiamen/ch10/g34279r28270'
p3010
aS'http://www.dianping.com/xiamen/ch10/g34241r2007'
p3011
aS'http://www.dianping.com/xiamen/ch10/g4477r88407'
p3012
aS'http://www.dianping.com/xiamen/ch10/g4477r88404'
p3013
aS'http://www.dianping.com/xiamen/ch10/g221r70208'
p3014
aS'http://www.dianping.com/xiamen/ch10/g4477r88401'
p3015
aS'http://www.dianping.com/xiamen/ch10/g32731r28963'
p3016
aS'http://www.dianping.com/xiamen/ch10/g32731r28964'
p3017
aS'http://www.dianping.com/xiamen/ch10/g27804r1840'
p3018
aS'http://www.dianping.com/xiamen/ch10/g4467r1847'
p3019
aS'http://www.dianping.com/xiamen/ch10/g4509r88417'
p3020
aS'http://www.dianping.com/xiamen/ch10/g33924r25928'
p3021
aS'http://www.dianping.com/xiamen/ch10/g4557r1836'
p3022
aS'http://www.dianping.com/xiamen/ch10/g1881r8374'
p3023
aS'http://www.dianping.com/xiamen/ch10/g1881r8375'
p3024
aS'http://www.dianping.com/xiamen/ch10/g34237r2008'
p3025
aS'http://www.dianping.com/xiamen/ch10/g24340r28549'
p3026
aS'http://www.dianping.com/xiamen/ch10/g241r28274'
p3027
aS'http://www.dianping.com/xiamen/ch10/g1821r30823'
p3028
aS'http://www.dianping.com/xiamen/ch10/g241r28272'
p3029
aS'http://www.dianping.com/xiamen/ch10/g24340r28963'
p3030
aS'http://www.dianping.com/xiamen/ch10/g210r27419'
p3031
aS'http://www.dianping.com/xiamen/ch10/g210r1833'
p3032
aS'http://www.dianping.com/xiamen/ch10/g210r1830'
p3033
aS'http://www.dianping.com/xiamen/ch10/g210r1831'
p3034
aS'http://www.dianping.com/xiamen/ch10/g210r1836'
p3035
aS'http://www.dianping.com/xiamen/ch10/g210r1837'
p3036
aS'http://www.dianping.com/xiamen/ch10/g210r1834'
p3037
aS'http://www.dianping.com/xiamen/ch10/g210r1835'
p3038
aS'http://www.dianping.com/xiamen/ch10/g34237r88412'
p3039
aS'http://www.dianping.com/xiamen/ch10/g1805r1843'
p3040
aS'http://www.dianping.com/xiamen/ch10/g253r2008'
p3041
aS'http://www.dianping.com/xiamen/ch10/g34237r88417'
p3042
aS'http://www.dianping.com/xiamen/ch10/g34237r88415'
p3043
aS'http://www.dianping.com/xiamen/ch10/g4469r1833'
p3044
aS'http://www.dianping.com/xiamen/ch10/g34237r88418'
p3045
aS'http://www.dianping.com/xiamen/ch10/g34278r15649'
p3046
aS'http://www.dianping.com/xiamen/ch10/g210r27090'
p3047
aS'http://www.dianping.com/xiamen/ch10/g4583r88412'
p3048
aS'http://www.dianping.com/xiamen/ch10/g1805r2008'
p3049
aS'http://www.dianping.com/xiamen/ch10/g4477r8087'
p3050
aS'http://www.dianping.com/xiamen/ch10/g34240r28887'
p3051
aS'http://www.dianping.com/xiamen/ch10/g34240r64735'
p3052
aS'http://www.dianping.com/xiamen/ch10/g34278r8087'
p3053
aS'http://www.dianping.com/xiamen/ch10/g4469r1830'
p3054
aS'http://www.dianping.com/xiamen/ch10/g4593r15655'
p3055
aS'http://www.dianping.com/xiamen/ch10/g4453r88435'
p3056
aS'http://www.dianping.com/xiamen/ch10/g4453r88437'
p3057
aS'http://www.dianping.com/xiamen/ch10/g222r28958'
p3058
aS'http://www.dianping.com/xiamen/ch10/g4509r1843'
p3059
aS'http://www.dianping.com/xiamen/ch10/g252r1834'
p3060
aS'http://www.dianping.com/xiamen/ch10/g34060r15651'
p3061
aS'http://www.dianping.com/xiamen/ch10/g34060r15652'
p3062
aS'http://www.dianping.com/xiamen/ch10/g34060r15653'
p3063
aS'http://www.dianping.com/xiamen/ch10/g34060r15654'
p3064
aS'http://www.dianping.com/xiamen/ch10/g34060r15655'
p3065
aS'http://www.dianping.com/xiamen/ch10/g34060r15656'
p3066
aS'http://www.dianping.com/xiamen/ch10/g252r1833'
p3067
aS'http://www.dianping.com/xiamen/ch10/g34245r70185'
p3068
aS'http://www.dianping.com/xiamen/ch10/g224r1836'
p3069
aS'http://www.dianping.com/xiamen/ch10/g34061r2007'
p3070
aS'http://www.dianping.com/xiamen/ch10/g252r1839'
p3071
aS'http://www.dianping.com/xiamen/ch10/g34244r15649'
p3072
aS'http://www.dianping.com/xiamen/ch10/g27801r1844'
p3073
aS'http://www.dianping.com/xiamen/ch10/g27801r1845'
p3074
aS'http://www.dianping.com/xiamen/ch10/g27801r1846'
p3075
aS'http://www.dianping.com/xiamen/ch10/g27801r1847'
p3076
aS'http://www.dianping.com/xiamen/ch10/g27801r1840'
p3077
aS'http://www.dianping.com/xiamen/ch10/g27801r1842'
p3078
aS'http://www.dianping.com/xiamen/ch10/g27801r1843'
p3079
aS'http://www.dianping.com/xiamen/ch10/g4473r15654'
p3080
aS'http://www.dianping.com/xiamen/ch10/g4473r15655'
p3081
aS'http://www.dianping.com/xiamen/ch10/g4473r15656'
p3082
aS'http://www.dianping.com/xiamen/ch10/g4473r15650'
p3083
aS'http://www.dianping.com/xiamen/ch10/g3017r11310'
p3084
aS'http://www.dianping.com/xiamen/ch10/g4473r15653'
p3085
aS'http://www.dianping.com/xiamen/ch10/g217r8373'
p3086
aS'http://www.dianping.com/xiamen/ch10/g217r8375'
p3087
aS'http://www.dianping.com/xiamen/ch10/g217r8374'
p3088
aS'http://www.dianping.com/xiamen/ch10/g4477r1845'
p3089
aS'http://www.dianping.com/xiamen/ch10/g4467r8087'
p3090
aS'http://www.dianping.com/xiamen/ch10/g4477r1847'
p3091
aS'http://www.dianping.com/xiamen/ch10/g4477r1846'
p3092
aS'http://www.dianping.com/xiamen/ch10/g4449r8087'
p3093
aS'http://www.dianping.com/xiamen/ch10/g4477r1840'
p3094
aS'http://www.dianping.com/xiamen/ch10/g4449r8085'
p3095
aS'http://www.dianping.com/xiamen/ch10/g224r1839'
p3096
aS'http://www.dianping.com/xiamen/ch10/g224r1838'
p3097
aS'http://www.dianping.com/xiamen/ch10/g134r11310'
p3098
aS'http://www.dianping.com/xiamen/ch10/g224r1831'
p3099
aS'http://www.dianping.com/xiamen/ch10/g224r1830'
p3100
aS'http://www.dianping.com/xiamen/ch10/g224r1833'
p3101
aS'http://www.dianping.com/xiamen/ch10/g4469r15649'
p3102
aS'http://www.dianping.com/xiamen/ch10/g224r1835'
p3103
aS'http://www.dianping.com/xiamen/ch10/g224r1834'
p3104
aS'http://www.dianping.com/xiamen/ch10/g224r1837'
p3105
aS'http://www.dianping.com/xiamen/ch10/g34277r1842'
p3106
aS'http://www.dianping.com/xiamen/ch10/g4273r28272'
p3107
aS'http://www.dianping.com/xiamen/ch10/g34277r1847'
p3108
aS'http://www.dianping.com/xiamen/ch10/g210r8375'
p3109
aS'http://www.dianping.com/xiamen/ch10/g34061r28958'
p3110
aS'http://www.dianping.com/xiamen/ch10/g33924r88404'
p3111
aS'http://www.dianping.com/xiamen/ch10/g217r85846'
p3112
atRp3113
.